libkim-api.so.2:KIM_CHARGE_UNIT_GetChargeUnit
libkim-api.so.2:KIM_CHARGE_UNIT_GetNumberOfChargeUnits
libkim-api.so.2:KIM_COLLECTION_GetCollection
libkim-api.so.2:KIM_COLLECTION_GetNumberOfCollections
libkim-api.so.2:KIM_COLLECTION_ITEM_TYPE_GetCollectionItemType
libkim-api.so.2:KIM_COLLECTION_ITEM_TYPE_GetNumberOfCollectionItemTypes
libkim-api.so.2:KIM_COMPUTE_ARGUMENT_NAME_GetComputeArgumentDataType
libkim-api.so.2:KIM_COMPUTE_ARGUMENT_NAME_GetComputeArgumentName
libkim-api.so.2:KIM_COMPUTE_ARGUMENT_NAME_GetNumberOfComputeArgumentNames
libkim-api.so.2:KIM_COMPUTE_CALLBACK_NAME_GetComputeCallbackName
libkim-api.so.2:KIM_COMPUTE_CALLBACK_NAME_GetNumberOfComputeCallbackNames
libkim-api.so.2:KIM_ChargeUnit_Equal
libkim-api.so.2:KIM_ChargeUnit_FromString
libkim-api.so.2:KIM_ChargeUnit_Known
libkim-api.so.2:KIM_ChargeUnit_NotEqual
libkim-api.so.2:KIM_ChargeUnit_ToString
libkim-api.so.2:KIM_CollectionItemType_Equal
libkim-api.so.2:KIM_CollectionItemType_FromString
libkim-api.so.2:KIM_CollectionItemType_Known
libkim-api.so.2:KIM_CollectionItemType_NotEqual
libkim-api.so.2:KIM_CollectionItemType_ToString
libkim-api.so.2:KIM_Collection_Equal
libkim-api.so.2:KIM_Collection_FromString
libkim-api.so.2:KIM_Collection_Known
libkim-api.so.2:KIM_Collection_NotEqual
libkim-api.so.2:KIM_Collection_ToString
libkim-api.so.2:KIM_Collections_CacheListOfDirectoryNames
libkim-api.so.2:KIM_Collections_CacheListOfItemMetadataFiles
libkim-api.so.2:KIM_Collections_CacheListOfItemMetadataFilesByCollectionAndType
libkim-api.so.2:KIM_Collections_CacheListOfItemNamesByCollectionAndType
libkim-api.so.2:KIM_Collections_CacheListOfItemNamesByType
libkim-api.so.2:KIM_Collections_Create
libkim-api.so.2:KIM_Collections_Destroy
libkim-api.so.2:KIM_Collections_GetConfigurationFileEnvironmentVariable
libkim-api.so.2:KIM_Collections_GetConfigurationFileName
libkim-api.so.2:KIM_Collections_GetDirectoryName
libkim-api.so.2:KIM_Collections_GetEnvironmentVariableName
libkim-api.so.2:KIM_Collections_GetItemLibraryFileNameAndCollection
libkim-api.so.2:KIM_Collections_GetItemLibraryFileNameByCollectionAndType
libkim-api.so.2:KIM_Collections_GetItemMetadataFile
libkim-api.so.2:KIM_Collections_GetItemMetadataFileByCollectionAndType
libkim-api.so.2:KIM_Collections_GetItemMetadataFileByCollectionAndType_fortran
libkim-api.so.2:KIM_Collections_GetItemMetadataFile_fortran
libkim-api.so.2:KIM_Collections_GetItemNameByCollectionAndType
libkim-api.so.2:KIM_Collections_GetItemNameByType
libkim-api.so.2:KIM_Collections_GetItemType
libkim-api.so.2:KIM_Collections_GetProjectNameAndSemVer
libkim-api.so.2:KIM_Collections_PopLogVerbosity
libkim-api.so.2:KIM_Collections_PushLogVerbosity
libkim-api.so.2:KIM_Collections_SetLogID
libkim-api.so.2:KIM_ComputeArgumentName_Equal
libkim-api.so.2:KIM_ComputeArgumentName_FromString
libkim-api.so.2:KIM_ComputeArgumentName_Known
libkim-api.so.2:KIM_ComputeArgumentName_NotEqual
libkim-api.so.2:KIM_ComputeArgumentName_ToString
libkim-api.so.2:KIM_ComputeArguments_AreAllRequiredArgumentsAndCallbacksPresent
libkim-api.so.2:KIM_ComputeArguments_GetArgumentSupportStatus
libkim-api.so.2:KIM_ComputeArguments_GetCallbackSupportStatus
libkim-api.so.2:KIM_ComputeArguments_GetSimulatorBufferPointer
libkim-api.so.2:KIM_ComputeArguments_PopLogVerbosity
libkim-api.so.2:KIM_ComputeArguments_PushLogVerbosity
libkim-api.so.2:KIM_ComputeArguments_SetArgumentPointerDouble
libkim-api.so.2:KIM_ComputeArguments_SetArgumentPointerInteger
libkim-api.so.2:KIM_ComputeArguments_SetCallbackPointer
libkim-api.so.2:KIM_ComputeArguments_SetLogID
libkim-api.so.2:KIM_ComputeArguments_SetSimulatorBufferPointer
libkim-api.so.2:KIM_ComputeArguments_ToString
libkim-api.so.2:KIM_ComputeCallbackNameNot_Equal
libkim-api.so.2:KIM_ComputeCallbackName_Equal
libkim-api.so.2:KIM_ComputeCallbackName_FromString
libkim-api.so.2:KIM_ComputeCallbackName_Known
libkim-api.so.2:KIM_ComputeCallbackName_ToString
libkim-api.so.2:KIM_DATA_TYPE_GetDataType
libkim-api.so.2:KIM_DATA_TYPE_GetNumberOfDataTypes
libkim-api.so.2:KIM_DataType_Equal
libkim-api.so.2:KIM_DataType_FromString
libkim-api.so.2:KIM_DataType_Known
libkim-api.so.2:KIM_DataType_NotEqual
libkim-api.so.2:KIM_DataType_ToString
libkim-api.so.2:KIM_ENERGY_UNIT_GetEnergyUnit
libkim-api.so.2:KIM_ENERGY_UNIT_GetNumberOfEnergyUnits
libkim-api.so.2:KIM_EnergyUnit_Equal
libkim-api.so.2:KIM_EnergyUnit_FromString
libkim-api.so.2:KIM_EnergyUnit_Known
libkim-api.so.2:KIM_EnergyUnit_NotEqual
libkim-api.so.2:KIM_EnergyUnit_ToString
libkim-api.so.2:KIM_LANGUAGE_NAME_GetLanguageName
libkim-api.so.2:KIM_LANGUAGE_NAME_GetNumberOfLanguageNames
libkim-api.so.2:KIM_LENGTH_UNIT_GetLengthUnit
libkim-api.so.2:KIM_LENGTH_UNIT_GetNumberOfLengthUnits
libkim-api.so.2:KIM_LOG_VERBOSITY_GetLogVerbosity
libkim-api.so.2:KIM_LOG_VERBOSITY_GetNumberOfLogVerbosities
libkim-api.so.2:KIM_LanguageName_Equal
libkim-api.so.2:KIM_LanguageName_FromString
libkim-api.so.2:KIM_LanguageName_Known
libkim-api.so.2:KIM_LanguageName_NotEqual
libkim-api.so.2:KIM_LanguageName_ToString
libkim-api.so.2:KIM_LengthUnit_Equal
libkim-api.so.2:KIM_LengthUnit_FromString
libkim-api.so.2:KIM_LengthUnit_Known
libkim-api.so.2:KIM_LengthUnit_NotEqual
libkim-api.so.2:KIM_LengthUnit_ToString
libkim-api.so.2:KIM_LogVerbosity_Equal
libkim-api.so.2:KIM_LogVerbosity_FromString
libkim-api.so.2:KIM_LogVerbosity_GreaterThan
libkim-api.so.2:KIM_LogVerbosity_GreaterThanEqual
libkim-api.so.2:KIM_LogVerbosity_Known
libkim-api.so.2:KIM_LogVerbosity_LessThan
libkim-api.so.2:KIM_LogVerbosity_LessThanEqual
libkim-api.so.2:KIM_LogVerbosity_NotEqual
libkim-api.so.2:KIM_LogVerbosity_ToString
libkim-api.so.2:KIM_Log_Create
libkim-api.so.2:KIM_Log_Destroy
libkim-api.so.2:KIM_Log_GetID
libkim-api.so.2:KIM_Log_LogEntry
libkim-api.so.2:KIM_Log_PopDefaultVerbosity
libkim-api.so.2:KIM_Log_PopVerbosity
libkim-api.so.2:KIM_Log_PushDefaultVerbosity
libkim-api.so.2:KIM_Log_PushVerbosity
libkim-api.so.2:KIM_Log_SetID
libkim-api.so.2:KIM_MODEL_ROUTINE_NAME_GetModelRoutineName
libkim-api.so.2:KIM_MODEL_ROUTINE_NAME_GetNumberOfModelRoutineNames
libkim-api.so.2:KIM_ModelComputeArgumentsCreate_LogEntry
libkim-api.so.2:KIM_ModelComputeArgumentsCreate_SetArgumentSupportStatus
libkim-api.so.2:KIM_ModelComputeArgumentsCreate_SetCallbackSupportStatus
libkim-api.so.2:KIM_ModelComputeArgumentsCreate_SetModelBufferPointer
libkim-api.so.2:KIM_ModelComputeArgumentsCreate_ToString
libkim-api.so.2:KIM_ModelComputeArgumentsDestroy_GetModelBufferPointer
libkim-api.so.2:KIM_ModelComputeArgumentsDestroy_LogEntry
libkim-api.so.2:KIM_ModelComputeArgumentsDestroy_ToString
libkim-api.so.2:KIM_ModelComputeArguments_GetArgumentPointerDouble
libkim-api.so.2:KIM_ModelComputeArguments_GetArgumentPointerInteger
libkim-api.so.2:KIM_ModelComputeArguments_GetModelBufferPointer
libkim-api.so.2:KIM_ModelComputeArguments_GetNeighborList
libkim-api.so.2:KIM_ModelComputeArguments_IsCallbackPresent
libkim-api.so.2:KIM_ModelComputeArguments_LogEntry
libkim-api.so.2:KIM_ModelComputeArguments_ProcessD2EDr2Term
libkim-api.so.2:KIM_ModelComputeArguments_ProcessDEDrTerm
libkim-api.so.2:KIM_ModelComputeArguments_SetModelBufferPointer
libkim-api.so.2:KIM_ModelComputeArguments_ToString
libkim-api.so.2:KIM_ModelCompute_GetModelBufferPointer
libkim-api.so.2:KIM_ModelCompute_LogEntry
libkim-api.so.2:KIM_ModelCompute_ToString
libkim-api.so.2:KIM_ModelCreate_ConvertUnit
libkim-api.so.2:KIM_ModelCreate_LogEntry
libkim-api.so.2:KIM_ModelCreate_SetInfluenceDistancePointer
libkim-api.so.2:KIM_ModelCreate_SetModelBufferPointer
libkim-api.so.2:KIM_ModelCreate_SetModelNumbering
libkim-api.so.2:KIM_ModelCreate_SetNeighborListPointers
libkim-api.so.2:KIM_ModelCreate_SetParameterPointerDouble
libkim-api.so.2:KIM_ModelCreate_SetParameterPointerInteger
libkim-api.so.2:KIM_ModelCreate_SetRoutinePointer
libkim-api.so.2:KIM_ModelCreate_SetSpeciesCode
libkim-api.so.2:KIM_ModelCreate_SetUnits
libkim-api.so.2:KIM_ModelCreate_ToString
libkim-api.so.2:KIM_ModelDestroy_GetModelBufferPointer
libkim-api.so.2:KIM_ModelDestroy_LogEntry
libkim-api.so.2:KIM_ModelDestroy_ToString
libkim-api.so.2:KIM_ModelDriverCreate_ConvertUnit
libkim-api.so.2:KIM_ModelDriverCreate_GetNumberOfParameterFiles
libkim-api.so.2:KIM_ModelDriverCreate_GetParameterFileName
libkim-api.so.2:KIM_ModelDriverCreate_LogEntry
libkim-api.so.2:KIM_ModelDriverCreate_SetInfluenceDistancePointer
libkim-api.so.2:KIM_ModelDriverCreate_SetModelBufferPointer
libkim-api.so.2:KIM_ModelDriverCreate_SetModelNumbering
libkim-api.so.2:KIM_ModelDriverCreate_SetNeighborListPointers
libkim-api.so.2:KIM_ModelDriverCreate_SetParameterPointerDouble
libkim-api.so.2:KIM_ModelDriverCreate_SetParameterPointerInteger
libkim-api.so.2:KIM_ModelDriverCreate_SetRoutinePointer
libkim-api.so.2:KIM_ModelDriverCreate_SetSpeciesCode
libkim-api.so.2:KIM_ModelDriverCreate_SetUnits
libkim-api.so.2:KIM_ModelDriverCreate_ToString
libkim-api.so.2:KIM_ModelExtension_GetExtensionID
libkim-api.so.2:KIM_ModelExtension_GetModelBufferPointer
libkim-api.so.2:KIM_ModelExtension_LogEntry
libkim-api.so.2:KIM_ModelExtension_ToModel
libkim-api.so.2:KIM_ModelExtension_ToModelCompute
libkim-api.so.2:KIM_ModelExtension_ToModelComputeArguments
libkim-api.so.2:KIM_ModelExtension_ToModelComputeArgumentsCreate
libkim-api.so.2:KIM_ModelExtension_ToModelComputeArgumentsDestroy
libkim-api.so.2:KIM_ModelExtension_ToModelCreate
libkim-api.so.2:KIM_ModelExtension_ToModelDestroy
libkim-api.so.2:KIM_ModelExtension_ToModelDriverCreate
libkim-api.so.2:KIM_ModelExtension_ToModelRefresh
libkim-api.so.2:KIM_ModelExtension_ToModelWriteParameterizedModel
libkim-api.so.2:KIM_ModelExtension_ToString
libkim-api.so.2:KIM_ModelRefresh_GetModelBufferPointer
libkim-api.so.2:KIM_ModelRefresh_LogEntry
libkim-api.so.2:KIM_ModelRefresh_SetInfluenceDistancePointer
libkim-api.so.2:KIM_ModelRefresh_SetNeighborListPointers
libkim-api.so.2:KIM_ModelRefresh_ToString
libkim-api.so.2:KIM_ModelRoutineName_Equal
libkim-api.so.2:KIM_ModelRoutineName_FromString
libkim-api.so.2:KIM_ModelRoutineName_Known
libkim-api.so.2:KIM_ModelRoutineName_NotEqual
libkim-api.so.2:KIM_ModelRoutineName_ToString
libkim-api.so.2:KIM_ModelWriteParameterizedModel_GetModelBufferPointer
libkim-api.so.2:KIM_ModelWriteParameterizedModel_GetModelName
libkim-api.so.2:KIM_ModelWriteParameterizedModel_GetPath
libkim-api.so.2:KIM_ModelWriteParameterizedModel_LogEntry
libkim-api.so.2:KIM_ModelWriteParameterizedModel_SetParameterFileName
libkim-api.so.2:KIM_ModelWriteParameterizedModel_ToString
libkim-api.so.2:KIM_Model_ClearThenRefresh
libkim-api.so.2:KIM_Model_Compute
libkim-api.so.2:KIM_Model_ComputeArgumentsCreate
libkim-api.so.2:KIM_Model_ComputeArgumentsDestroy
libkim-api.so.2:KIM_Model_Create
libkim-api.so.2:KIM_Model_Destroy
libkim-api.so.2:KIM_Model_Extension
libkim-api.so.2:KIM_Model_GetInfluenceDistance
libkim-api.so.2:KIM_Model_GetNeighborListPointers
libkim-api.so.2:KIM_Model_GetNumberOfParameters
libkim-api.so.2:KIM_Model_GetParameterDouble
libkim-api.so.2:KIM_Model_GetParameterInteger
libkim-api.so.2:KIM_Model_GetParameterMetadata
libkim-api.so.2:KIM_Model_GetSimulatorBufferPointer
libkim-api.so.2:KIM_Model_GetSpeciesSupportAndCode
libkim-api.so.2:KIM_Model_GetUnits
libkim-api.so.2:KIM_Model_IsRoutinePresent
libkim-api.so.2:KIM_Model_PopLogVerbosity
libkim-api.so.2:KIM_Model_PushLogVerbosity
libkim-api.so.2:KIM_Model_SetLogID
libkim-api.so.2:KIM_Model_SetParameterDouble
libkim-api.so.2:KIM_Model_SetParameterInteger
libkim-api.so.2:KIM_Model_SetSimulatorBufferPointer
libkim-api.so.2:KIM_Model_ToString
libkim-api.so.2:KIM_Model_WriteParameterizedModel
libkim-api.so.2:KIM_NUMBERING_GetNumberOfNumberings
libkim-api.so.2:KIM_NUMBERING_GetNumbering
libkim-api.so.2:KIM_Numbering_Equal
libkim-api.so.2:KIM_Numbering_FromString
libkim-api.so.2:KIM_Numbering_Known
libkim-api.so.2:KIM_Numbering_NotEqual
libkim-api.so.2:KIM_Numbering_ToString
libkim-api.so.2:KIM_SEM_VER_GetSemVer
libkim-api.so.2:KIM_SEM_VER_IsLessThan
libkim-api.so.2:KIM_SEM_VER_ParseSemVer
libkim-api.so.2:KIM_SPECIES_NAME_GetNumberOfSpeciesNames
libkim-api.so.2:KIM_SPECIES_NAME_GetSpeciesName
libkim-api.so.2:KIM_SUPPORT_STATUS_GetNumberOfSupportStatuses
libkim-api.so.2:KIM_SUPPORT_STATUS_GetSupportStatus
libkim-api.so.2:KIM_SimulatorModel_AddTemplateMap
libkim-api.so.2:KIM_SimulatorModel_CloseTemplateMap
libkim-api.so.2:KIM_SimulatorModel_Create
libkim-api.so.2:KIM_SimulatorModel_Destroy
libkim-api.so.2:KIM_SimulatorModel_GetNumberOfParameterFiles
libkim-api.so.2:KIM_SimulatorModel_GetNumberOfSimulatorFields
libkim-api.so.2:KIM_SimulatorModel_GetNumberOfSupportedSpecies
libkim-api.so.2:KIM_SimulatorModel_GetParameterFileDirectoryName
libkim-api.so.2:KIM_SimulatorModel_GetParameterFileName
libkim-api.so.2:KIM_SimulatorModel_GetSimulatorBufferPointer
libkim-api.so.2:KIM_SimulatorModel_GetSimulatorFieldLine
libkim-api.so.2:KIM_SimulatorModel_GetSimulatorFieldMetadata
libkim-api.so.2:KIM_SimulatorModel_GetSimulatorNameAndVersion
libkim-api.so.2:KIM_SimulatorModel_GetSpecificationFileName
libkim-api.so.2:KIM_SimulatorModel_GetSupportedSpecies
libkim-api.so.2:KIM_SimulatorModel_OpenAndInitializeTemplateMap
libkim-api.so.2:KIM_SimulatorModel_PopLogVerbosity
libkim-api.so.2:KIM_SimulatorModel_PushLogVerbosity
libkim-api.so.2:KIM_SimulatorModel_SetLogID
libkim-api.so.2:KIM_SimulatorModel_SetSimulatorBufferPointer
libkim-api.so.2:KIM_SimulatorModel_TemplateMapIsOpen
libkim-api.so.2:KIM_SimulatorModel_ToString
libkim-api.so.2:KIM_SpeciesName_Equal
libkim-api.so.2:KIM_SpeciesName_FromString
libkim-api.so.2:KIM_SpeciesName_Known
libkim-api.so.2:KIM_SpeciesName_NotEqual
libkim-api.so.2:KIM_SpeciesName_ToString
libkim-api.so.2:KIM_SupportStatus_Equal
libkim-api.so.2:KIM_SupportStatus_FromString
libkim-api.so.2:KIM_SupportStatus_Known
libkim-api.so.2:KIM_SupportStatus_NotEqual
libkim-api.so.2:KIM_SupportStatus_ToString
libkim-api.so.2:KIM_TEMPERATURE_UNIT_GetNumberOfTemperatureUnits
libkim-api.so.2:KIM_TEMPERATURE_UNIT_GetTemperatureUnit
libkim-api.so.2:KIM_TIME_UNIT_GetNumberOfTimeUnits
libkim-api.so.2:KIM_TIME_UNIT_GetTimeUnit
libkim-api.so.2:KIM_TemperatureUnit_Equal
libkim-api.so.2:KIM_TemperatureUnit_FromString
libkim-api.so.2:KIM_TemperatureUnit_Known
libkim-api.so.2:KIM_TemperatureUnit_NotEqual
libkim-api.so.2:KIM_TemperatureUnit_ToString
libkim-api.so.2:KIM_TimeUnit_Equal
libkim-api.so.2:KIM_TimeUnit_FromString
libkim-api.so.2:KIM_TimeUnit_Known
libkim-api.so.2:KIM_TimeUnit_NotEqual
libkim-api.so.2:KIM_TimeUnit_ToString
libkim-api.so.2:_ZN3KIM10COLLECTION13GetCollectionEiPNS_10CollectionE
libkim-api.so.2:_ZN3KIM10COLLECTION22GetNumberOfCollectionsEPi
libkim-api.so.2:_ZN3KIM10ChargeUnitC1ERKNSt7__cxx1112basic_stringIcSt11char_traitsIcESaIcEEE
libkim-api.so.2:_ZN3KIM10ChargeUnitC1Ei
libkim-api.so.2:_ZN3KIM10ChargeUnitC1Ev
libkim-api.so.2:_ZN3KIM10ChargeUnitC2ERKNSt7__cxx1112basic_stringIcSt11char_traitsIcESaIcEEE
libkim-api.so.2:_ZN3KIM10ChargeUnitC2Ei
libkim-api.so.2:_ZN3KIM10ChargeUnitC2Ev
libkim-api.so.2:_ZN3KIM10CollectionC1ERKNSt7__cxx1112basic_stringIcSt11char_traitsIcESaIcEEE
libkim-api.so.2:_ZN3KIM10CollectionC1Ei
libkim-api.so.2:_ZN3KIM10CollectionC1Ev
libkim-api.so.2:_ZN3KIM10CollectionC2ERKNSt7__cxx1112basic_stringIcSt11char_traitsIcESaIcEEE
libkim-api.so.2:_ZN3KIM10CollectionC2Ei
libkim-api.so.2:_ZN3KIM10CollectionC2Ev
libkim-api.so.2:_ZN3KIM10EnergyUnitC1ERKNSt7__cxx1112basic_stringIcSt11char_traitsIcESaIcEEE
libkim-api.so.2:_ZN3KIM10EnergyUnitC1Ei
libkim-api.so.2:_ZN3KIM10EnergyUnitC1Ev
libkim-api.so.2:_ZN3KIM10EnergyUnitC2ERKNSt7__cxx1112basic_stringIcSt11char_traitsIcESaIcEEE
libkim-api.so.2:_ZN3KIM10EnergyUnitC2Ei
libkim-api.so.2:_ZN3KIM10EnergyUnitC2Ev
libkim-api.so.2:_ZN3KIM10LengthUnitC1ERKNSt7__cxx1112basic_stringIcSt11char_traitsIcESaIcEEE
libkim-api.so.2:_ZN3KIM10LengthUnitC1Ei
libkim-api.so.2:_ZN3KIM10LengthUnitC1Ev
libkim-api.so.2:_ZN3KIM10LengthUnitC2ERKNSt7__cxx1112basic_stringIcSt11char_traitsIcESaIcEEE
libkim-api.so.2:_ZN3KIM10LengthUnitC2Ei
libkim-api.so.2:_ZN3KIM10LengthUnitC2Ev
libkim-api.so.2:_ZN3KIM11CHARGE_UNIT13GetChargeUnitEiPNS_10ChargeUnitE
libkim-api.so.2:_ZN3KIM11CHARGE_UNIT22GetNumberOfChargeUnitsEPi
libkim-api.so.2:_ZN3KIM11Collections15PopLogVerbosityEv
libkim-api.so.2:_ZN3KIM11Collections16PushLogVerbosityENS_12LogVerbosityE
libkim-api.so.2:_ZN3KIM11Collections25CacheListOfDirectoryNamesENS_10CollectionENS_18CollectionItemTypeEPi
libkim-api.so.2:_ZN3KIM11Collections26CacheListOfItemNamesByTypeENS_18CollectionItemTypeEPi
libkim-api.so.2:_ZN3KIM11Collections28CacheListOfItemMetadataFilesENS_18CollectionItemTypeERKNSt7__cxx1112basic_stringIcSt11char_traitsIcESaIcEEEPi
libkim-api.so.2:_ZN3KIM11Collections39CacheListOfItemNamesByCollectionAndTypeENS_10CollectionENS_18CollectionItemTypeEPi
libkim-api.so.2:_ZN3KIM11Collections47CacheListOfItemMetadataFilesByCollectionAndTypeENS_10CollectionENS_18CollectionItemTypeERKNSt7__cxx1112basic_stringIcSt11char_traitsIcESaIcEEEPi
libkim-api.so.2:_ZN3KIM11Collections6CreateEPPS0_
libkim-api.so.2:_ZN3KIM11Collections7DestroyEPPS0_
libkim-api.so.2:_ZN3KIM11Collections8SetLogIDERKNSt7__cxx1112basic_stringIcSt11char_traitsIcESaIcEEE
libkim-api.so.2:_ZN3KIM11CollectionsC1Ev
libkim-api.so.2:_ZN3KIM11CollectionsC2Ev
libkim-api.so.2:_ZN3KIM11CollectionsD1Ev
libkim-api.so.2:_ZN3KIM11CollectionsD2Ev
libkim-api.so.2:_ZN3KIM11ENERGY_UNIT13GetEnergyUnitEiPNS_10EnergyUnitE
libkim-api.so.2:_ZN3KIM11ENERGY_UNIT22GetNumberOfEnergyUnitsEPi
libkim-api.so.2:_ZN3KIM11LENGTH_UNIT13GetLengthUnitEiPNS_10LengthUnitE
libkim-api.so.2:_ZN3KIM11LENGTH_UNIT22GetNumberOfLengthUnitsEPi
libkim-api.so.2:_ZN3KIM11ModelCreate11ConvertUnitENS_10LengthUnitENS_10EnergyUnitENS_10ChargeUnitENS_15TemperatureUnitENS_8TimeUnitES1_S2_S3_S4_S5_dddddPd
libkim-api.so.2:_ZN3KIM11ModelCreate14SetSpeciesCodeENS_11SpeciesNameEi
libkim-api.so.2:_ZN3KIM11ModelCreate17SetModelNumberingENS_9NumberingE
libkim-api.so.2:_ZN3KIM11ModelCreate17SetRoutinePointerENS_16ModelRoutineNameENS_12LanguageNameEiPFvvE
libkim-api.so.2:_ZN3KIM11ModelCreate19SetParameterPointerEiPdRKNSt7__cxx1112basic_stringIcSt11char_traitsIcESaIcEEES9_
libkim-api.so.2:_ZN3KIM11ModelCreate19SetParameterPointerEiPiRKNSt7__cxx1112basic_stringIcSt11char_traitsIcESaIcEEES9_
libkim-api.so.2:_ZN3KIM11ModelCreate21SetModelBufferPointerEPv
libkim-api.so.2:_ZN3KIM11ModelCreate23SetNeighborListPointersEiPKdPKi
libkim-api.so.2:_ZN3KIM11ModelCreate27SetInfluenceDistancePointerEPKd
libkim-api.so.2:_ZN3KIM11ModelCreate8SetUnitsENS_10LengthUnitENS_10EnergyUnitENS_10ChargeUnitENS_15TemperatureUnitENS_8TimeUnitE
libkim-api.so.2:_ZN3KIM11ModelCreateC1Ev
libkim-api.so.2:_ZN3KIM11ModelCreateC2Ev
libkim-api.so.2:_ZN3KIM11ModelCreateD1Ev
libkim-api.so.2:_ZN3KIM11ModelCreateD2Ev
libkim-api.so.2:_ZN3KIM11SpeciesNameC1ERKNSt7__cxx1112basic_stringIcSt11char_traitsIcESaIcEEE
libkim-api.so.2:_ZN3KIM11SpeciesNameC1Ei
libkim-api.so.2:_ZN3KIM11SpeciesNameC1Ev
libkim-api.so.2:_ZN3KIM11SpeciesNameC2ERKNSt7__cxx1112basic_stringIcSt11char_traitsIcESaIcEEE
libkim-api.so.2:_ZN3KIM11SpeciesNameC2Ei
libkim-api.so.2:_ZN3KIM11SpeciesNameC2Ev
libkim-api.so.2:_ZN3KIM12LanguageNameC1ERKNSt7__cxx1112basic_stringIcSt11char_traitsIcESaIcEEE
libkim-api.so.2:_ZN3KIM12LanguageNameC1Ei
libkim-api.so.2:_ZN3KIM12LanguageNameC1Ev
libkim-api.so.2:_ZN3KIM12LanguageNameC2ERKNSt7__cxx1112basic_stringIcSt11char_traitsIcESaIcEEE
libkim-api.so.2:_ZN3KIM12LanguageNameC2Ei
libkim-api.so.2:_ZN3KIM12LanguageNameC2Ev
libkim-api.so.2:_ZN3KIM12LogVerbosityC1ERKNSt7__cxx1112basic_stringIcSt11char_traitsIcESaIcEEE
libkim-api.so.2:_ZN3KIM12LogVerbosityC1Ei
libkim-api.so.2:_ZN3KIM12LogVerbosityC1Ev
libkim-api.so.2:_ZN3KIM12LogVerbosityC2ERKNSt7__cxx1112basic_stringIcSt11char_traitsIcESaIcEEE
libkim-api.so.2:_ZN3KIM12LogVerbosityC2Ei
libkim-api.so.2:_ZN3KIM12LogVerbosityC2Ev
libkim-api.so.2:_ZN3KIM12ModelComputeC1Ev
libkim-api.so.2:_ZN3KIM12ModelComputeC2Ev
libkim-api.so.2:_ZN3KIM12ModelComputeD1Ev
libkim-api.so.2:_ZN3KIM12ModelComputeD2Ev
libkim-api.so.2:_ZN3KIM12ModelDestroyC1Ev
libkim-api.so.2:_ZN3KIM12ModelDestroyC2Ev
libkim-api.so.2:_ZN3KIM12ModelDestroyD1Ev
libkim-api.so.2:_ZN3KIM12ModelDestroyD2Ev
libkim-api.so.2:_ZN3KIM12ModelRefresh23SetNeighborListPointersEiPKdPKi
libkim-api.so.2:_ZN3KIM12ModelRefresh27SetInfluenceDistancePointerEPKd
libkim-api.so.2:_ZN3KIM12ModelRefreshC1Ev
libkim-api.so.2:_ZN3KIM12ModelRefreshC2Ev
libkim-api.so.2:_ZN3KIM12ModelRefreshD1Ev
libkim-api.so.2:_ZN3KIM12ModelRefreshD2Ev
libkim-api.so.2:_ZN3KIM12SPECIES_NAME14GetSpeciesNameEiPNS_11SpeciesNameE
libkim-api.so.2:_ZN3KIM12SPECIES_NAME23GetNumberOfSpeciesNamesEPi
libkim-api.so.2:_ZN3KIM13LANGUAGE_NAME15GetLanguageNameEiPNS_12LanguageNameE
libkim-api.so.2:_ZN3KIM13LANGUAGE_NAME24GetNumberOfLanguageNamesEPi
libkim-api.so.2:_ZN3KIM13LOG_VERBOSITY15GetLogVerbosityEiPNS_12LogVerbosityE
libkim-api.so.2:_ZN3KIM13LOG_VERBOSITY25GetNumberOfLogVerbositiesEPi
libkim-api.so.2:_ZN3KIM13SharedLibrary4OpenERKNSt7__cxx1112basic_stringIcSt11char_traitsIcESaIcEEE
libkim-api.so.2:_ZN3KIM13SharedLibrary5CloseEv
libkim-api.so.2:_ZN3KIM13SharedLibraryC1EPNS_3LogE
libkim-api.so.2:_ZN3KIM13SharedLibraryC2EPNS_3LogE
libkim-api.so.2:_ZN3KIM13SharedLibraryD1Ev
libkim-api.so.2:_ZN3KIM13SharedLibraryD2Ev
libkim-api.so.2:_ZN3KIM13SupportStatusC1ERKNSt7__cxx1112basic_stringIcSt11char_traitsIcESaIcEEE
libkim-api.so.2:_ZN3KIM13SupportStatusC1Ei
libkim-api.so.2:_ZN3KIM13SupportStatusC1Ev
libkim-api.so.2:_ZN3KIM13SupportStatusC2ERKNSt7__cxx1112basic_stringIcSt11char_traitsIcESaIcEEE
libkim-api.so.2:_ZN3KIM13SupportStatusC2Ei
libkim-api.so.2:_ZN3KIM13SupportStatusC2Ev
libkim-api.so.2:_ZN3KIM14ModelExtension11ModelCreateEv
libkim-api.so.2:_ZN3KIM14ModelExtension12ModelComputeEv
libkim-api.so.2:_ZN3KIM14ModelExtension12ModelDestroyEv
libkim-api.so.2:_ZN3KIM14ModelExtension12ModelRefreshEv
libkim-api.so.2:_ZN3KIM14ModelExtension17ModelDriverCreateEv
libkim-api.so.2:_ZN3KIM14ModelExtension28ModelWriteParameterizedModelEv
libkim-api.so.2:_ZN3KIM14ModelExtension5ModelEv
libkim-api.so.2:_ZN3KIM14ModelExtensionC1Ev
libkim-api.so.2:_ZN3KIM14ModelExtensionC2Ev
libkim-api.so.2:_ZN3KIM14ModelExtensionD1Ev
libkim-api.so.2:_ZN3KIM14ModelExtensionD2Ev
libkim-api.so.2:_ZN3KIM14SUPPORT_STATUS16GetSupportStatusEiPNS_13SupportStatusE
libkim-api.so.2:_ZN3KIM14SUPPORT_STATUS26GetNumberOfSupportStatusesEPi
libkim-api.so.2:_ZN3KIM14SimulatorModel14AddTemplateMapERKNSt7__cxx1112basic_stringIcSt11char_traitsIcESaIcEEES8_
libkim-api.so.2:_ZN3KIM14SimulatorModel15PopLogVerbosityEv
libkim-api.so.2:_ZN3KIM14SimulatorModel16CloseTemplateMapEv
libkim-api.so.2:_ZN3KIM14SimulatorModel16PushLogVerbosityENS_12LogVerbosityE
libkim-api.so.2:_ZN3KIM14SimulatorModel25SetSimulatorBufferPointerEPv
libkim-api.so.2:_ZN3KIM14SimulatorModel28OpenAndInitializeTemplateMapEv
libkim-api.so.2:_ZN3KIM14SimulatorModel6CreateERKNSt7__cxx1112basic_stringIcSt11char_traitsIcESaIcEEEPPS0_
libkim-api.so.2:_ZN3KIM14SimulatorModel7DestroyEPPS0_
libkim-api.so.2:_ZN3KIM14SimulatorModel8SetLogIDERKNSt7__cxx1112basic_stringIcSt11char_traitsIcESaIcEEE
libkim-api.so.2:_ZN3KIM14SimulatorModelC1Ev
libkim-api.so.2:_ZN3KIM14SimulatorModelC2Ev
libkim-api.so.2:_ZN3KIM14SimulatorModelD1Ev
libkim-api.so.2:_ZN3KIM14SimulatorModelD2Ev
libkim-api.so.2:_ZN3KIM15TemperatureUnitC1ERKNSt7__cxx1112basic_stringIcSt11char_traitsIcESaIcEEE
libkim-api.so.2:_ZN3KIM15TemperatureUnitC1Ei
libkim-api.so.2:_ZN3KIM15TemperatureUnitC1Ev
libkim-api.so.2:_ZN3KIM15TemperatureUnitC2ERKNSt7__cxx1112basic_stringIcSt11char_traitsIcESaIcEEE
libkim-api.so.2:_ZN3KIM15TemperatureUnitC2Ei
libkim-api.so.2:_ZN3KIM15TemperatureUnitC2Ev
libkim-api.so.2:_ZN3KIM16ComputeArguments15PopLogVerbosityEv
libkim-api.so.2:_ZN3KIM16ComputeArguments16PushLogVerbosityENS_12LogVerbosityE
libkim-api.so.2:_ZN3KIM16ComputeArguments18SetArgumentPointerENS_19ComputeArgumentNameEPKd
libkim-api.so.2:_ZN3KIM16ComputeArguments18SetArgumentPointerENS_19ComputeArgumentNameEPKi
libkim-api.so.2:_ZN3KIM16ComputeArguments18SetArgumentPointerENS_19ComputeArgumentNameEPd
libkim-api.so.2:_ZN3KIM16ComputeArguments18SetArgumentPointerENS_19ComputeArgumentNameEPi
libkim-api.so.2:_ZN3KIM16ComputeArguments18SetCallbackPointerENS_19ComputeCallbackNameENS_12LanguageNameEPFvvEPv
libkim-api.so.2:_ZN3KIM16ComputeArguments25SetSimulatorBufferPointerEPv
libkim-api.so.2:_ZN3KIM16ComputeArguments8SetLogIDERKNSt7__cxx1112basic_stringIcSt11char_traitsIcESaIcEEE
libkim-api.so.2:_ZN3KIM16ComputeArgumentsC1Ev
libkim-api.so.2:_ZN3KIM16ComputeArgumentsC2Ev
libkim-api.so.2:_ZN3KIM16ComputeArgumentsD1Ev
libkim-api.so.2:_ZN3KIM16ComputeArgumentsD2Ev
libkim-api.so.2:_ZN3KIM16ModelRoutineNameC1ERKNSt7__cxx1112basic_stringIcSt11char_traitsIcESaIcEEE
libkim-api.so.2:_ZN3KIM16ModelRoutineNameC1Ei
libkim-api.so.2:_ZN3KIM16ModelRoutineNameC1Ev
libkim-api.so.2:_ZN3KIM16ModelRoutineNameC2ERKNSt7__cxx1112basic_stringIcSt11char_traitsIcESaIcEEE
libkim-api.so.2:_ZN3KIM16ModelRoutineNameC2Ei
libkim-api.so.2:_ZN3KIM16ModelRoutineNameC2Ev
libkim-api.so.2:_ZN3KIM16TEMPERATURE_UNIT18GetTemperatureUnitEiPNS_15TemperatureUnitE
libkim-api.so.2:_ZN3KIM16TEMPERATURE_UNIT27GetNumberOfTemperatureUnitsEPi
libkim-api.so.2:_ZN3KIM17LogImplementation11EntryStringERKNSt7__cxx1112basic_stringIcSt11char_traitsIcESaIcEEES8_iS8_S8_iS8_
libkim-api.so.2:_ZN3KIM17LogImplementation12PopVerbosityEv
libkim-api.so.2:_ZN3KIM17LogImplementation13PushVerbosityENS_12LogVerbosityE
libkim-api.so.2:_ZN3KIM17LogImplementation19PopDefaultVerbosityEv
libkim-api.so.2:_ZN3KIM17LogImplementation20PushDefaultVerbosityENS_12LogVerbosityE
libkim-api.so.2:_ZN3KIM17LogImplementation5SetIDERKNSt7__cxx1112basic_stringIcSt11char_traitsIcESaIcEEE
libkim-api.so.2:_ZN3KIM17LogImplementation6CreateEPPS0_
libkim-api.so.2:_ZN3KIM17LogImplementation7DestroyEPPS0_
libkim-api.so.2:_ZN3KIM17LogImplementationC1Ev
libkim-api.so.2:_ZN3KIM17LogImplementationC2Ev
libkim-api.so.2:_ZN3KIM17LogImplementationD1Ev
libkim-api.so.2:_ZN3KIM17LogImplementationD2Ev
libkim-api.so.2:_ZN3KIM17ModelDriverCreate11ConvertUnitENS_10LengthUnitENS_10EnergyUnitENS_10ChargeUnitENS_15TemperatureUnitENS_8TimeUnitES1_S2_S3_S4_S5_dddddPd
libkim-api.so.2:_ZN3KIM17ModelDriverCreate14SetSpeciesCodeENS_11SpeciesNameEi
libkim-api.so.2:_ZN3KIM17ModelDriverCreate17SetModelNumberingENS_9NumberingE
libkim-api.so.2:_ZN3KIM17ModelDriverCreate17SetRoutinePointerENS_16ModelRoutineNameENS_12LanguageNameEiPFvvE
libkim-api.so.2:_ZN3KIM17ModelDriverCreate19SetParameterPointerEiPdRKNSt7__cxx1112basic_stringIcSt11char_traitsIcESaIcEEES9_
libkim-api.so.2:_ZN3KIM17ModelDriverCreate19SetParameterPointerEiPiRKNSt7__cxx1112basic_stringIcSt11char_traitsIcESaIcEEES9_
libkim-api.so.2:_ZN3KIM17ModelDriverCreate21SetModelBufferPointerEPv
libkim-api.so.2:_ZN3KIM17ModelDriverCreate23SetNeighborListPointersEiPKdPKi
libkim-api.so.2:_ZN3KIM17ModelDriverCreate27SetInfluenceDistancePointerEPKd
libkim-api.so.2:_ZN3KIM17ModelDriverCreate8SetUnitsENS_10LengthUnitENS_10EnergyUnitENS_10ChargeUnitENS_15TemperatureUnitENS_8TimeUnitE
libkim-api.so.2:_ZN3KIM17ModelDriverCreateC1Ev
libkim-api.so.2:_ZN3KIM17ModelDriverCreateC2Ev
libkim-api.so.2:_ZN3KIM17ModelDriverCreateD1Ev
libkim-api.so.2:_ZN3KIM17ModelDriverCreateD2Ev
libkim-api.so.2:_ZN3KIM18CollectionItemTypeC1ERKNSt7__cxx1112basic_stringIcSt11char_traitsIcESaIcEEE
libkim-api.so.2:_ZN3KIM18CollectionItemTypeC1Ei
libkim-api.so.2:_ZN3KIM18CollectionItemTypeC1Ev
libkim-api.so.2:_ZN3KIM18CollectionItemTypeC2ERKNSt7__cxx1112basic_stringIcSt11char_traitsIcESaIcEEE
libkim-api.so.2:_ZN3KIM18CollectionItemTypeC2Ei
libkim-api.so.2:_ZN3KIM18CollectionItemTypeC2Ev
libkim-api.so.2:_ZN3KIM18MODEL_ROUTINE_NAME19GetModelRoutineNameEiPNS_16ModelRoutineNameE
libkim-api.so.2:_ZN3KIM18MODEL_ROUTINE_NAME28GetNumberOfModelRoutineNamesEPi
libkim-api.so.2:_ZN3KIM19ComputeArgumentNameC1ERKNSt7__cxx1112basic_stringIcSt11char_traitsIcESaIcEEE
libkim-api.so.2:_ZN3KIM19ComputeArgumentNameC1Ei
libkim-api.so.2:_ZN3KIM19ComputeArgumentNameC1Ev
libkim-api.so.2:_ZN3KIM19ComputeArgumentNameC2ERKNSt7__cxx1112basic_stringIcSt11char_traitsIcESaIcEEE
libkim-api.so.2:_ZN3KIM19ComputeArgumentNameC2Ei
libkim-api.so.2:_ZN3KIM19ComputeArgumentNameC2Ev
libkim-api.so.2:_ZN3KIM19ComputeCallbackNameC1ERKNSt7__cxx1112basic_stringIcSt11char_traitsIcESaIcEEE
libkim-api.so.2:_ZN3KIM19ComputeCallbackNameC1Ei
libkim-api.so.2:_ZN3KIM19ComputeCallbackNameC1Ev
libkim-api.so.2:_ZN3KIM19ComputeCallbackNameC2ERKNSt7__cxx1112basic_stringIcSt11char_traitsIcESaIcEEE
libkim-api.so.2:_ZN3KIM19ComputeCallbackNameC2Ei
libkim-api.so.2:_ZN3KIM19ComputeCallbackNameC2Ev
libkim-api.so.2:_ZN3KIM19ModelImplementation11ConvertUnitENS_10LengthUnitENS_10EnergyUnitENS_10ChargeUnitENS_15TemperatureUnitENS_8TimeUnitES1_S2_S3_S4_S5_dddddPd
libkim-api.so.2:_ZN3KIM19ModelImplementation11ModelCreateENS_9NumberingENS_10LengthUnitENS_10EnergyUnitENS_10ChargeUnitENS_15TemperatureUnitENS_8TimeUnitERKNSt7__cxx1112basic_stringIcSt11char_traitsIcESaIcEEE
libkim-api.so.2:_ZN3KIM19ModelImplementation12ModelDestroyEv
libkim-api.so.2:_ZN3KIM19ModelImplementation12ModelRefreshEv
libkim-api.so.2:_ZN3KIM19ModelImplementation12SetParameterEiid
libkim-api.so.2:_ZN3KIM19ModelImplementation12SetParameterEiii
libkim-api.so.2:_ZN3KIM19ModelImplementation14ModelExtensionEPv
libkim-api.so.2:_ZN3KIM19ModelImplementation14SetSpeciesCodeENS_11SpeciesNameEi
libkim-api.so.2:_ZN3KIM19ModelImplementation15PopLogVerbosityEv
libkim-api.so.2:_ZN3KIM19ModelImplementation16ClearThenRefreshEv
libkim-api.so.2:_ZN3KIM19ModelImplementation16PushLogVerbosityENS_12LogVerbosityE
libkim-api.so.2:_ZN3KIM19ModelImplementation17SetModelNumberingENS_9NumberingE
libkim-api.so.2:_ZN3KIM19ModelImplementation17SetRoutinePointerENS_16ModelRoutineNameENS_12LanguageNameEiPFvvE
libkim-api.so.2:_ZN3KIM19ModelImplementation19SetParameterPointerEiPdRKNSt7__cxx1112basic_stringIcSt11char_traitsIcESaIcEEES9_
libkim-api.so.2:_ZN3KIM19ModelImplementation19SetParameterPointerEiPiRKNSt7__cxx1112basic_stringIcSt11char_traitsIcESaIcEEES9_
libkim-api.so.2:_ZN3KIM19ModelImplementation19WriteParameterFilesEv
libkim-api.so.2:_ZN3KIM19ModelImplementation21SetModelBufferPointerEPv
libkim-api.so.2:_ZN3KIM19ModelImplementation21SetSimulatorNumberingENS_9NumberingE
libkim-api.so.2:_ZN3KIM19ModelImplementation23SetNeighborListPointersEiPKdPKi
libkim-api.so.2:_ZN3KIM19ModelImplementation25InitializeStandAloneModelENS_10LengthUnitENS_10EnergyUnitENS_10ChargeUnitENS_15TemperatureUnitENS_8TimeUnitE
libkim-api.so.2:_ZN3KIM19ModelImplementation25SetSimulatorBufferPointerEPv
libkim-api.so.2:_ZN3KIM19ModelImplementation27SetInfluenceDistancePointerEPKd
libkim-api.so.2:_ZN3KIM19ModelImplementation28InitializeParameterizedModelENS_10LengthUnitENS_10EnergyUnitENS_10ChargeUnitENS_15TemperatureUnitENS_8TimeUnitE
libkim-api.so.2:_ZN3KIM19ModelImplementation6CreateENS_9NumberingENS_10LengthUnitENS_10EnergyUnitENS_10ChargeUnitENS_15TemperatureUnitENS_8TimeUnitERKNSt7__cxx1112basic_stringIcSt11char_traitsIcESaIcEEEPiPPS0_
libkim-api.so.2:_ZN3KIM19ModelImplementation7DestroyEPPS0_
libkim-api.so.2:_ZN3KIM19ModelImplementation8SetLogIDERKNSt7__cxx1112basic_stringIcSt11char_traitsIcESaIcEEE
libkim-api.so.2:_ZN3KIM19ModelImplementation8SetUnitsENS_10LengthUnitENS_10EnergyUnitENS_10ChargeUnitENS_15TemperatureUnitENS_8TimeUnitE
libkim-api.so.2:_ZN3KIM19ModelImplementation9ExtensionERKNSt7__cxx1112basic_stringIcSt11char_traitsIcESaIcEEEPv
libkim-api.so.2:_ZN3KIM19ModelImplementationC1EPNS_13SharedLibraryEPNS_3LogE
libkim-api.so.2:_ZN3KIM19ModelImplementationC2EPNS_13SharedLibraryEPNS_3LogE
libkim-api.so.2:_ZN3KIM19ModelImplementationD1Ev
libkim-api.so.2:_ZN3KIM19ModelImplementationD2Ev
libkim-api.so.2:_ZN3KIM20COLLECTION_ITEM_TYPE21GetCollectionItemTypeEiPNS_18CollectionItemTypeE
libkim-api.so.2:_ZN3KIM20COLLECTION_ITEM_TYPE30GetNumberOfCollectionItemTypesEPi
libkim-api.so.2:_ZN3KIM21COMPUTE_ARGUMENT_NAME22GetComputeArgumentNameEiPNS_19ComputeArgumentNameE
libkim-api.so.2:_ZN3KIM21COMPUTE_ARGUMENT_NAME26GetComputeArgumentDataTypeENS_19ComputeArgumentNameEPNS_8DataTypeE
libkim-api.so.2:_ZN3KIM21COMPUTE_ARGUMENT_NAME31GetNumberOfComputeArgumentNamesEPi
libkim-api.so.2:_ZN3KIM21COMPUTE_CALLBACK_NAME22GetComputeCallbackNameEiPNS_19ComputeCallbackNameE
libkim-api.so.2:_ZN3KIM21COMPUTE_CALLBACK_NAME31GetNumberOfComputeCallbackNamesEPi
libkim-api.so.2:_ZN3KIM21ModelComputeArguments21SetModelBufferPointerEPv
libkim-api.so.2:_ZN3KIM21ModelComputeArgumentsC1Ev
libkim-api.so.2:_ZN3KIM21ModelComputeArgumentsC2Ev
libkim-api.so.2:_ZN3KIM21ModelComputeArgumentsD1Ev
libkim-api.so.2:_ZN3KIM21ModelComputeArgumentsD2Ev
libkim-api.so.2:_ZN3KIM25CollectionsImplementation15PopLogVerbosityEv
libkim-api.so.2:_ZN3KIM25CollectionsImplementation16PushLogVerbosityENS_12LogVerbosityE
libkim-api.so.2:_ZN3KIM25CollectionsImplementation25CacheListOfDirectoryNamesENS_10CollectionENS_18CollectionItemTypeEPi
libkim-api.so.2:_ZN3KIM25CollectionsImplementation26CacheListOfItemNamesByTypeENS_18CollectionItemTypeEPi
libkim-api.so.2:_ZN3KIM25CollectionsImplementation28CacheListOfItemMetadataFilesENS_18CollectionItemTypeERKNSt7__cxx1112basic_stringIcSt11char_traitsIcESaIcEEEPi
libkim-api.so.2:_ZN3KIM25CollectionsImplementation39CacheListOfItemNamesByCollectionAndTypeENS_10CollectionENS_18CollectionItemTypeEPi
libkim-api.so.2:_ZN3KIM25CollectionsImplementation47CacheListOfItemMetadataFilesByCollectionAndTypeENS_10CollectionENS_18CollectionItemTypeERKNSt7__cxx1112basic_stringIcSt11char_traitsIcESaIcEEEPi
libkim-api.so.2:_ZN3KIM25CollectionsImplementation6CreateEPPS0_
libkim-api.so.2:_ZN3KIM25CollectionsImplementation7DestroyEPPS0_
libkim-api.so.2:_ZN3KIM25CollectionsImplementation8SetLogIDERKNSt7__cxx1112basic_stringIcSt11char_traitsIcESaIcEEE
libkim-api.so.2:_ZN3KIM25CollectionsImplementationC1EPNS_3LogE
libkim-api.so.2:_ZN3KIM25CollectionsImplementationC2EPNS_3LogE
libkim-api.so.2:_ZN3KIM25CollectionsImplementationD1Ev
libkim-api.so.2:_ZN3KIM25CollectionsImplementationD2Ev
libkim-api.so.2:_ZN3KIM27ModelComputeArgumentsCreate21SetModelBufferPointerEPv
libkim-api.so.2:_ZN3KIM27ModelComputeArgumentsCreate24SetArgumentSupportStatusENS_19ComputeArgumentNameENS_13SupportStatusE
libkim-api.so.2:_ZN3KIM27ModelComputeArgumentsCreate24SetCallbackSupportStatusENS_19ComputeCallbackNameENS_13SupportStatusE
libkim-api.so.2:_ZN3KIM27ModelComputeArgumentsCreateC1Ev
libkim-api.so.2:_ZN3KIM27ModelComputeArgumentsCreateC2Ev
libkim-api.so.2:_ZN3KIM27ModelComputeArgumentsCreateD1Ev
libkim-api.so.2:_ZN3KIM27ModelComputeArgumentsCreateD2Ev
libkim-api.so.2:_ZN3KIM28ModelComputeArgumentsDestroyC1Ev
libkim-api.so.2:_ZN3KIM28ModelComputeArgumentsDestroyC2Ev
libkim-api.so.2:_ZN3KIM28ModelComputeArgumentsDestroyD1Ev
libkim-api.so.2:_ZN3KIM28ModelComputeArgumentsDestroyD2Ev
libkim-api.so.2:_ZN3KIM28ModelWriteParameterizedModelC1Ev
libkim-api.so.2:_ZN3KIM28ModelWriteParameterizedModelC2Ev
libkim-api.so.2:_ZN3KIM28ModelWriteParameterizedModelD1Ev
libkim-api.so.2:_ZN3KIM28ModelWriteParameterizedModelD2Ev
libkim-api.so.2:_ZN3KIM28SimulatorModelImplementation10InitializeERKNSt7__cxx1112basic_stringIcSt11char_traitsIcESaIcEEE
libkim-api.so.2:_ZN3KIM28SimulatorModelImplementation14AddTemplateMapERKNSt7__cxx1112basic_stringIcSt11char_traitsIcESaIcEEES8_
libkim-api.so.2:_ZN3KIM28SimulatorModelImplementation15PopLogVerbosityEv
libkim-api.so.2:_ZN3KIM28SimulatorModelImplementation15ReadEdnSchemaV1Ev
libkim-api.so.2:_ZN3KIM28SimulatorModelImplementation16CloseTemplateMapEv
libkim-api.so.2:_ZN3KIM28SimulatorModelImplementation16GetSchemaVersionEv
libkim-api.so.2:_ZN3KIM28SimulatorModelImplementation16PushLogVerbosityENS_12LogVerbosityE
libkim-api.so.2:_ZN3KIM28SimulatorModelImplementation22ProcessSimulatorFieldsEv
libkim-api.so.2:_ZN3KIM28SimulatorModelImplementation25AddStandardTemplatesToMapEv
libkim-api.so.2:_ZN3KIM28SimulatorModelImplementation25SetSimulatorBufferPointerEPv
libkim-api.so.2:_ZN3KIM28SimulatorModelImplementation27WriteParameterFileDirectoryEv
libkim-api.so.2:_ZN3KIM28SimulatorModelImplementation28OpenAndInitializeTemplateMapEv
libkim-api.so.2:_ZN3KIM28SimulatorModelImplementation28RemoveParameterFileDirectoryEv
libkim-api.so.2:_ZN3KIM28SimulatorModelImplementation6CreateERKNSt7__cxx1112basic_stringIcSt11char_traitsIcESaIcEEEPPS0_
libkim-api.so.2:_ZN3KIM28SimulatorModelImplementation7DestroyEPPS0_
libkim-api.so.2:_ZN3KIM28SimulatorModelImplementation8SetLogIDERKNSt7__cxx1112basic_stringIcSt11char_traitsIcESaIcEEE
libkim-api.so.2:_ZN3KIM28SimulatorModelImplementationC1EPNS_13SharedLibraryEPNS_3LogE
libkim-api.so.2:_ZN3KIM28SimulatorModelImplementationC2EPNS_13SharedLibraryEPNS_3LogE
libkim-api.so.2:_ZN3KIM28SimulatorModelImplementationD1Ev
libkim-api.so.2:_ZN3KIM28SimulatorModelImplementationD2Ev
libkim-api.so.2:_ZN3KIM30ComputeArgumentsImplementation15PopLogVerbosityEv
libkim-api.so.2:_ZN3KIM30ComputeArgumentsImplementation16PushLogVerbosityENS_12LogVerbosityE
libkim-api.so.2:_ZN3KIM30ComputeArgumentsImplementation18SetArgumentPointerENS_19ComputeArgumentNameEPKd
libkim-api.so.2:_ZN3KIM30ComputeArgumentsImplementation18SetArgumentPointerENS_19ComputeArgumentNameEPKi
libkim-api.so.2:_ZN3KIM30ComputeArgumentsImplementation18SetArgumentPointerENS_19ComputeArgumentNameEPd
libkim-api.so.2:_ZN3KIM30ComputeArgumentsImplementation18SetArgumentPointerENS_19ComputeArgumentNameEPi
libkim-api.so.2:_ZN3KIM30ComputeArgumentsImplementation18SetCallbackPointerENS_19ComputeCallbackNameENS_12LanguageNameEPFvvEPv
libkim-api.so.2:_ZN3KIM30ComputeArgumentsImplementation21SetModelBufferPointerEPv
libkim-api.so.2:_ZN3KIM30ComputeArgumentsImplementation24SetArgumentSupportStatusENS_19ComputeArgumentNameENS_13SupportStatusE
libkim-api.so.2:_ZN3KIM30ComputeArgumentsImplementation24SetCallbackSupportStatusENS_19ComputeCallbackNameENS_13SupportStatusE
libkim-api.so.2:_ZN3KIM30ComputeArgumentsImplementation25SetSimulatorBufferPointerEPv
libkim-api.so.2:_ZN3KIM30ComputeArgumentsImplementation6CreateERKNSt7__cxx1112basic_stringIcSt11char_traitsIcESaIcEEES8_NS_9NumberingES9_iPPS0_
libkim-api.so.2:_ZN3KIM30ComputeArgumentsImplementation7DestroyEPPS0_
libkim-api.so.2:_ZN3KIM30ComputeArgumentsImplementation8SetLogIDERKNSt7__cxx1112basic_stringIcSt11char_traitsIcESaIcEEE
libkim-api.so.2:_ZN3KIM30ComputeArgumentsImplementationC1ERKNSt7__cxx1112basic_stringIcSt11char_traitsIcESaIcEEENS_9NumberingES9_iPNS_3LogE
libkim-api.so.2:_ZN3KIM30ComputeArgumentsImplementationC2ERKNSt7__cxx1112basic_stringIcSt11char_traitsIcESaIcEEENS_9NumberingES9_iPNS_3LogE
libkim-api.so.2:_ZN3KIM30ComputeArgumentsImplementationD1Ev
libkim-api.so.2:_ZN3KIM30ComputeArgumentsImplementationD2Ev
libkim-api.so.2:_ZN3KIM3Log12PopVerbosityEv
libkim-api.so.2:_ZN3KIM3Log13PushVerbosityENS_12LogVerbosityE
libkim-api.so.2:_ZN3KIM3Log19PopDefaultVerbosityEv
libkim-api.so.2:_ZN3KIM3Log20PushDefaultVerbosityENS_12LogVerbosityE
libkim-api.so.2:_ZN3KIM3Log5SetIDERKNSt7__cxx1112basic_stringIcSt11char_traitsIcESaIcEEE
libkim-api.so.2:_ZN3KIM3Log6CreateEPPS0_
libkim-api.so.2:_ZN3KIM3Log7DestroyEPPS0_
libkim-api.so.2:_ZN3KIM3LogC1Ev
libkim-api.so.2:_ZN3KIM3LogC2Ev
libkim-api.so.2:_ZN3KIM3LogD1Ev
libkim-api.so.2:_ZN3KIM3LogD2Ev
libkim-api.so.2:_ZN3KIM5Model12SetParameterEiid
libkim-api.so.2:_ZN3KIM5Model12SetParameterEiii
libkim-api.so.2:_ZN3KIM5Model15PopLogVerbosityEv
libkim-api.so.2:_ZN3KIM5Model16ClearThenRefreshEv
libkim-api.so.2:_ZN3KIM5Model16PushLogVerbosityENS_12LogVerbosityE
libkim-api.so.2:_ZN3KIM5Model25SetSimulatorBufferPointerEPv
libkim-api.so.2:_ZN3KIM5Model6CreateENS_9NumberingENS_10LengthUnitENS_10EnergyUnitENS_10ChargeUnitENS_15TemperatureUnitENS_8TimeUnitERKNSt7__cxx1112basic_stringIcSt11char_traitsIcESaIcEEEPiPPS0_
libkim-api.so.2:_ZN3KIM5Model7DestroyEPPS0_
libkim-api.so.2:_ZN3KIM5Model8SetLogIDERKNSt7__cxx1112basic_stringIcSt11char_traitsIcESaIcEEE
libkim-api.so.2:_ZN3KIM5Model9ExtensionERKNSt7__cxx1112basic_stringIcSt11char_traitsIcESaIcEEEPv
libkim-api.so.2:_ZN3KIM5ModelC1Ev
libkim-api.so.2:_ZN3KIM5ModelC2Ev
libkim-api.so.2:_ZN3KIM5ModelD1Ev
libkim-api.so.2:_ZN3KIM5ModelD2Ev
libkim-api.so.2:_ZN3KIM7SEM_VER10IsLessThanERKNSt7__cxx1112basic_stringIcSt11char_traitsIcESaIcEEES8_Pi
libkim-api.so.2:_ZN3KIM7SEM_VER11ParseSemVerERKNSt7__cxx1112basic_stringIcSt11char_traitsIcESaIcEEEPiS9_S9_PS6_SA_
libkim-api.so.2:_ZN3KIM7SEM_VER9GetSemVerB5cxx11Ev
libkim-api.so.2:_ZN3KIM8DataTypeC1ERKNSt7__cxx1112basic_stringIcSt11char_traitsIcESaIcEEE
libkim-api.so.2:_ZN3KIM8DataTypeC1Ei
libkim-api.so.2:_ZN3KIM8DataTypeC1Ev
libkim-api.so.2:_ZN3KIM8DataTypeC2ERKNSt7__cxx1112basic_stringIcSt11char_traitsIcESaIcEEE
libkim-api.so.2:_ZN3KIM8DataTypeC2Ei
libkim-api.so.2:_ZN3KIM8DataTypeC2Ev
libkim-api.so.2:_ZN3KIM8TimeUnitC1ERKNSt7__cxx1112basic_stringIcSt11char_traitsIcESaIcEEE
libkim-api.so.2:_ZN3KIM8TimeUnitC1Ei
libkim-api.so.2:_ZN3KIM8TimeUnitC1Ev
libkim-api.so.2:_ZN3KIM8TimeUnitC2ERKNSt7__cxx1112basic_stringIcSt11char_traitsIcESaIcEEE
libkim-api.so.2:_ZN3KIM8TimeUnitC2Ei
libkim-api.so.2:_ZN3KIM8TimeUnitC2Ev
libkim-api.so.2:_ZN3KIM9DATA_TYPE11GetDataTypeEiPNS_8DataTypeE
libkim-api.so.2:_ZN3KIM9DATA_TYPE20GetNumberOfDataTypesEPi
libkim-api.so.2:_ZN3KIM9NUMBERING12GetNumberingEiPNS_9NumberingE
libkim-api.so.2:_ZN3KIM9NUMBERING21GetNumberOfNumberingsEPi
libkim-api.so.2:_ZN3KIM9NumberingC1ERKNSt7__cxx1112basic_stringIcSt11char_traitsIcESaIcEEE
libkim-api.so.2:_ZN3KIM9NumberingC1Ei
libkim-api.so.2:_ZN3KIM9NumberingC1Ev
libkim-api.so.2:_ZN3KIM9NumberingC2ERKNSt7__cxx1112basic_stringIcSt11char_traitsIcESaIcEEE
libkim-api.so.2:_ZN3KIM9NumberingC2Ei
libkim-api.so.2:_ZN3KIM9NumberingC2Ev
libkim-api.so.2:_ZN3KIM9TIME_UNIT11GetTimeUnitEiPNS_8TimeUnitE
libkim-api.so.2:_ZN3KIM9TIME_UNIT20GetNumberOfTimeUnitsEPi
libkim-api.so.2:_ZN3edn10handleAtomENS_8EdnTokenE
libkim-api.so.2:_ZN3edn10shiftTokenERNSt7__cxx114listINS_8EdnTokenESaIS2_EEE
libkim-api.so.2:_ZN3edn10strRangeInENSt7__cxx1112basic_stringIcSt11char_traitsIcESaIcEEEPKcii
libkim-api.so.2:_ZN3edn10validFloatENSt7__cxx1112basic_stringIcSt11char_traitsIcESaIcEEE
libkim-api.so.2:_ZN3edn11createTokenENS_9TokenTypeEiNSt7__cxx1112basic_stringIcSt11char_traitsIcESaIcEEERNS1_4listINS_8EdnTokenESaIS8_EEE
libkim-api.so.2:_ZN3edn11validSymbolENSt7__cxx1112basic_stringIcSt11char_traitsIcESaIcEEE
libkim-api.so.2:_ZN3edn12escapeQuotesERKNSt7__cxx1112basic_stringIcSt11char_traitsIcESaIcEEE
libkim-api.so.2:_ZN3edn12handleTaggedENS_8EdnTokenENS_7EdnNodeE
libkim-api.so.2:_ZN3edn12typeToStringB5cxx11ENS_8NodeTypeE
libkim-api.so.2:_ZN3edn12validKeywordENSt7__cxx1112basic_stringIcSt11char_traitsIcESaIcEEE
libkim-api.so.2:_ZN3edn16handleCollectionENS_8EdnTokenENSt7__cxx114listINS_7EdnNodeESaIS3_EEE
libkim-api.so.2:_ZN3edn3lexENSt7__cxx1112basic_stringIcSt11char_traitsIcESaIcEEE
libkim-api.so.2:_ZN3edn4readENSt7__cxx1112basic_stringIcSt11char_traitsIcESaIcEEE
libkim-api.so.2:_ZN3edn6pprintB5cxx11ERNS_7EdnNodeEi
libkim-api.so.2:_ZN3edn8validIntENSt7__cxx1112basic_stringIcSt11char_traitsIcESaIcEEEb
libkim-api.so.2:_ZN3edn8validNilENSt7__cxx1112basic_stringIcSt11char_traitsIcESaIcEEE
libkim-api.so.2:_ZN3edn9readAheadENS_8EdnTokenERNSt7__cxx114listIS0_SaIS0_EEE
libkim-api.so.2:_ZN3edn9uppercaseERNSt7__cxx1112basic_stringIcSt11char_traitsIcESaIcEEE
libkim-api.so.2:_ZN3edn9validBoolENSt7__cxx1112basic_stringIcSt11char_traitsIcESaIcEEE
libkim-api.so.2:_ZN3edn9validCharENSt7__cxx1112basic_stringIcSt11char_traitsIcESaIcEEE
libkim-api.so.2:_ZNK3KIM10ChargeUnit5KnownEv
libkim-api.so.2:_ZNK3KIM10ChargeUnit8ToStringB5cxx11Ev
libkim-api.so.2:_ZNK3KIM10ChargeUniteqERKS0_
libkim-api.so.2:_ZNK3KIM10ChargeUnitneERKS0_
libkim-api.so.2:_ZNK3KIM10Collection5KnownEv
libkim-api.so.2:_ZNK3KIM10Collection8ToStringB5cxx11Ev
libkim-api.so.2:_ZNK3KIM10CollectioneqERKS0_
libkim-api.so.2:_ZNK3KIM10CollectionneERKS0_
libkim-api.so.2:_ZNK3KIM10EnergyUnit5KnownEv
libkim-api.so.2:_ZNK3KIM10EnergyUnit8ToStringB5cxx11Ev
libkim-api.so.2:_ZNK3KIM10EnergyUniteqERKS0_
libkim-api.so.2:_ZNK3KIM10EnergyUnitneERKS0_
libkim-api.so.2:_ZNK3KIM10LengthUnit5KnownEv
libkim-api.so.2:_ZNK3KIM10LengthUnit8ToStringB5cxx11Ev
libkim-api.so.2:_ZNK3KIM10LengthUniteqERKS0_
libkim-api.so.2:_ZNK3KIM10LengthUnitneERKS0_
libkim-api.so.2:_ZNK3KIM11Collections11GetItemTypeERKNSt7__cxx1112basic_stringIcSt11char_traitsIcESaIcEEEPNS_18CollectionItemTypeE
libkim-api.so.2:_ZNK3KIM11Collections16GetDirectoryNameEiPPKNSt7__cxx1112basic_stringIcSt11char_traitsIcESaIcEEE
libkim-api.so.2:_ZNK3KIM11Collections17GetItemNameByTypeEiPPKNSt7__cxx1112basic_stringIcSt11char_traitsIcESaIcEEE
libkim-api.so.2:_ZNK3KIM11Collections19GetItemMetadataFileEiPPKNSt7__cxx1112basic_stringIcSt11char_traitsIcESaIcEEEPjPPKhPiS9_
libkim-api.so.2:_ZNK3KIM11Collections23GetProjectNameAndSemVerEPPKNSt7__cxx1112basic_stringIcSt11char_traitsIcESaIcEEES9_
libkim-api.so.2:_ZNK3KIM11Collections24GetConfigurationFileNameEPPKNSt7__cxx1112basic_stringIcSt11char_traitsIcESaIcEEE
libkim-api.so.2:_ZNK3KIM11Collections26GetEnvironmentVariableNameENS_18CollectionItemTypeEPPKNSt7__cxx1112basic_stringIcSt11char_traitsIcESaIcEEE
libkim-api.so.2:_ZNK3KIM11Collections30GetItemNameByCollectionAndTypeEiPPKNSt7__cxx1112basic_stringIcSt11char_traitsIcESaIcEEE
libkim-api.so.2:_ZNK3KIM11Collections35GetItemLibraryFileNameAndCollectionENS_18CollectionItemTypeERKNSt7__cxx1112basic_stringIcSt11char_traitsIcESaIcEEEPPS8_PNS_10CollectionE
libkim-api.so.2:_ZNK3KIM11Collections38GetItemMetadataFileByCollectionAndTypeEiPPKNSt7__cxx1112basic_stringIcSt11char_traitsIcESaIcEEEPjPPKhPiS9_
libkim-api.so.2:_ZNK3KIM11Collections39GetConfigurationFileEnvironmentVariableEPPKNSt7__cxx1112basic_stringIcSt11char_traitsIcESaIcEEES9_
libkim-api.so.2:_ZNK3KIM11Collections41GetItemLibraryFileNameByCollectionAndTypeENS_10CollectionENS_18CollectionItemTypeERKNSt7__cxx1112basic_stringIcSt11char_traitsIcESaIcEEEPPS9_
libkim-api.so.2:_ZNK3KIM11ModelCreate8LogEntryENS_12LogVerbosityERKNSt7__cxx1112basic_stringIcSt11char_traitsIcESaIcEEEiS9_
libkim-api.so.2:_ZNK3KIM11ModelCreate8LogEntryENS_12LogVerbosityERKNSt7__cxx1118basic_stringstreamIcSt11char_traitsIcESaIcEEEiRKNS2_12basic_stringIcS5_S6_EE
libkim-api.so.2:_ZNK3KIM11ModelCreate8ToStringB5cxx11Ev
libkim-api.so.2:_ZNK3KIM11SpeciesName5KnownEv
libkim-api.so.2:_ZNK3KIM11SpeciesName8ToStringB5cxx11Ev
libkim-api.so.2:_ZNK3KIM11SpeciesNameeqERKS0_
libkim-api.so.2:_ZNK3KIM11SpeciesNameneERKS0_
libkim-api.so.2:_ZNK3KIM12LanguageName5KnownEv
libkim-api.so.2:_ZNK3KIM12LanguageName8ToStringB5cxx11Ev
libkim-api.so.2:_ZNK3KIM12LanguageNameeqERKS0_
libkim-api.so.2:_ZNK3KIM12LanguageNameneERKS0_
libkim-api.so.2:_ZNK3KIM12LogVerbosity5KnownEv
libkim-api.so.2:_ZNK3KIM12LogVerbosity8ToStringB5cxx11Ev
libkim-api.so.2:_ZNK3KIM12LogVerbosityeqERKS0_
libkim-api.so.2:_ZNK3KIM12LogVerbositygeERKS0_
libkim-api.so.2:_ZNK3KIM12LogVerbositygtERKS0_
libkim-api.so.2:_ZNK3KIM12LogVerbosityleERKS0_
libkim-api.so.2:_ZNK3KIM12LogVerbosityltERKS0_
libkim-api.so.2:_ZNK3KIM12LogVerbosityneERKS0_
libkim-api.so.2:_ZNK3KIM12ModelCompute21GetModelBufferPointerEPPv
libkim-api.so.2:_ZNK3KIM12ModelCompute8LogEntryENS_12LogVerbosityERKNSt7__cxx1112basic_stringIcSt11char_traitsIcESaIcEEEiS9_
libkim-api.so.2:_ZNK3KIM12ModelCompute8LogEntryENS_12LogVerbosityERKNSt7__cxx1118basic_stringstreamIcSt11char_traitsIcESaIcEEEiRKNS2_12basic_stringIcS5_S6_EE
libkim-api.so.2:_ZNK3KIM12ModelCompute8ToStringB5cxx11Ev
libkim-api.so.2:_ZNK3KIM12ModelDestroy21GetModelBufferPointerEPPv
libkim-api.so.2:_ZNK3KIM12ModelDestroy8LogEntryENS_12LogVerbosityERKNSt7__cxx1112basic_stringIcSt11char_traitsIcESaIcEEEiS9_
libkim-api.so.2:_ZNK3KIM12ModelDestroy8LogEntryENS_12LogVerbosityERKNSt7__cxx1118basic_stringstreamIcSt11char_traitsIcESaIcEEEiRKNS2_12basic_stringIcS5_S6_EE
libkim-api.so.2:_ZNK3KIM12ModelDestroy8ToStringB5cxx11Ev
libkim-api.so.2:_ZNK3KIM12ModelRefresh21GetModelBufferPointerEPPv
libkim-api.so.2:_ZNK3KIM12ModelRefresh8LogEntryENS_12LogVerbosityERKNSt7__cxx1112basic_stringIcSt11char_traitsIcESaIcEEEiS9_
libkim-api.so.2:_ZNK3KIM12ModelRefresh8LogEntryENS_12LogVerbosityERKNSt7__cxx1118basic_stringstreamIcSt11char_traitsIcESaIcEEEiRKNS2_12basic_stringIcS5_S6_EE
libkim-api.so.2:_ZNK3KIM12ModelRefresh8ToStringB5cxx11Ev
libkim-api.so.2:_ZNK3KIM13SharedLibrary13GetDriverNameEPNSt7__cxx1112basic_stringIcSt11char_traitsIcESaIcEEE
libkim-api.so.2:_ZNK3KIM13SharedLibrary15GetMetadataFileEiPNSt7__cxx1112basic_stringIcSt11char_traitsIcESaIcEEEPjPPKh
libkim-api.so.2:_ZNK3KIM13SharedLibrary16GetParameterFileEiPNSt7__cxx1112basic_stringIcSt11char_traitsIcESaIcEEEPjPPKh
libkim-api.so.2:_ZNK3KIM13SharedLibrary24GetCreateFunctionPointerEPNS_12LanguageNameEPPFvvE
libkim-api.so.2:_ZNK3KIM13SharedLibrary24GetNumberOfMetadataFilesEPi
libkim-api.so.2:_ZNK3KIM13SharedLibrary25GetNumberOfParameterFilesEPi
libkim-api.so.2:_ZNK3KIM13SharedLibrary34GetSimulatorModelSpecificationFileEPNSt7__cxx1112basic_stringIcSt11char_traitsIcESaIcEEEPjPPKh
libkim-api.so.2:_ZNK3KIM13SharedLibrary7GetNameEPNSt7__cxx1112basic_stringIcSt11char_traitsIcESaIcEEE
libkim-api.so.2:_ZNK3KIM13SharedLibrary7GetTypeEPNS_18CollectionItemTypeE
libkim-api.so.2:_ZNK3KIM13SharedLibrary8LogEntryENS_12LogVerbosityERKNSt7__cxx1112basic_stringIcSt11char_traitsIcESaIcEEEiS9_
libkim-api.so.2:_ZNK3KIM13SupportStatus5KnownEv
libkim-api.so.2:_ZNK3KIM13SupportStatus8ToStringB5cxx11Ev
libkim-api.so.2:_ZNK3KIM13SupportStatuseqERKS0_
libkim-api.so.2:_ZNK3KIM13SupportStatusneERKS0_
libkim-api.so.2:_ZNK3KIM14ModelExtension14GetExtensionIDEPPKNSt7__cxx1112basic_stringIcSt11char_traitsIcESaIcEEE
libkim-api.so.2:_ZNK3KIM14ModelExtension21GetModelBufferPointerEPPv
libkim-api.so.2:_ZNK3KIM14ModelExtension21ModelComputeArgumentsEPNS_16ComputeArgumentsE
libkim-api.so.2:_ZNK3KIM14ModelExtension27ModelComputeArgumentsCreateEPNS_16ComputeArgumentsE
libkim-api.so.2:_ZNK3KIM14ModelExtension28ModelComputeArgumentsDestroyEPNS_16ComputeArgumentsE
libkim-api.so.2:_ZNK3KIM14ModelExtension8LogEntryENS_12LogVerbosityERKNSt7__cxx1112basic_stringIcSt11char_traitsIcESaIcEEEiS9_
libkim-api.so.2:_ZNK3KIM14ModelExtension8LogEntryENS_12LogVerbosityERKNSt7__cxx1118basic_stringstreamIcSt11char_traitsIcESaIcEEEiRKNS2_12basic_stringIcS5_S6_EE
libkim-api.so.2:_ZNK3KIM14ModelExtension8ToStringB5cxx11Ev
libkim-api.so.2:_ZNK3KIM14SimulatorModel17TemplateMapIsOpenEv
libkim-api.so.2:_ZNK3KIM14SimulatorModel19GetSupportedSpeciesEiPPKNSt7__cxx1112basic_stringIcSt11char_traitsIcESaIcEEE
libkim-api.so.2:_ZNK3KIM14SimulatorModel20GetParameterFileNameEiPPKNSt7__cxx1112basic_stringIcSt11char_traitsIcESaIcEEE
libkim-api.so.2:_ZNK3KIM14SimulatorModel21GetSimulatorFieldLineEiiPPKNSt7__cxx1112basic_stringIcSt11char_traitsIcESaIcEEE
libkim-api.so.2:_ZNK3KIM14SimulatorModel24GetSpecificationFileNameEPPKNSt7__cxx1112basic_stringIcSt11char_traitsIcESaIcEEE
libkim-api.so.2:_ZNK3KIM14SimulatorModel25GetNumberOfParameterFilesEPi
libkim-api.so.2:_ZNK3KIM14SimulatorModel25GetSimulatorBufferPointerEPPv
libkim-api.so.2:_ZNK3KIM14SimulatorModel25GetSimulatorFieldMetadataEiPiPPKNSt7__cxx1112basic_stringIcSt11char_traitsIcESaIcEEE
libkim-api.so.2:_ZNK3KIM14SimulatorModel26GetNumberOfSimulatorFieldsEPi
libkim-api.so.2:_ZNK3KIM14SimulatorModel26GetSimulatorNameAndVersionEPPKNSt7__cxx1112basic_stringIcSt11char_traitsIcESaIcEEES9_
libkim-api.so.2:_ZNK3KIM14SimulatorModel27GetNumberOfSupportedSpeciesEPi
libkim-api.so.2:_ZNK3KIM14SimulatorModel29GetParameterFileDirectoryNameEPPKNSt7__cxx1112basic_stringIcSt11char_traitsIcESaIcEEE
libkim-api.so.2:_ZNK3KIM14SimulatorModel8ToStringB5cxx11Ev
libkim-api.so.2:_ZNK3KIM15TemperatureUnit5KnownEv
libkim-api.so.2:_ZNK3KIM15TemperatureUnit8ToStringB5cxx11Ev
libkim-api.so.2:_ZNK3KIM15TemperatureUniteqERKS0_
libkim-api.so.2:_ZNK3KIM15TemperatureUnitneERKS0_
libkim-api.so.2:_ZNK3KIM16ComputeArguments24GetArgumentSupportStatusENS_19ComputeArgumentNameEPNS_13SupportStatusE
libkim-api.so.2:_ZNK3KIM16ComputeArguments24GetCallbackSupportStatusENS_19ComputeCallbackNameEPNS_13SupportStatusE
libkim-api.so.2:_ZNK3KIM16ComputeArguments25GetSimulatorBufferPointerEPPv
libkim-api.so.2:_ZNK3KIM16ComputeArguments42AreAllRequiredArgumentsAndCallbacksPresentEPi
libkim-api.so.2:_ZNK3KIM16ComputeArguments8ToStringB5cxx11Ev
libkim-api.so.2:_ZNK3KIM16ModelRoutineName5KnownEv
libkim-api.so.2:_ZNK3KIM16ModelRoutineName8ToStringB5cxx11Ev
libkim-api.so.2:_ZNK3KIM16ModelRoutineNameeqERKS0_
libkim-api.so.2:_ZNK3KIM16ModelRoutineNameneERKS0_
libkim-api.so.2:_ZNK3KIM17LogImplementation12GetTimeStampB5cxx11Ev
libkim-api.so.2:_ZNK3KIM17LogImplementation5GetIDB5cxx11Ev
libkim-api.so.2:_ZNK3KIM17LogImplementation8LogEntryENS_12LogVerbosityERKNSt7__cxx1112basic_stringIcSt11char_traitsIcESaIcEEEiS9_
libkim-api.so.2:_ZNK3KIM17ModelDriverCreate20GetParameterFileNameEiPPKNSt7__cxx1112basic_stringIcSt11char_traitsIcESaIcEEE
libkim-api.so.2:_ZNK3KIM17ModelDriverCreate25GetNumberOfParameterFilesEPi
libkim-api.so.2:_ZNK3KIM17ModelDriverCreate8LogEntryENS_12LogVerbosityERKNSt7__cxx1112basic_stringIcSt11char_traitsIcESaIcEEEiS9_
libkim-api.so.2:_ZNK3KIM17ModelDriverCreate8LogEntryENS_12LogVerbosityERKNSt7__cxx1118basic_stringstreamIcSt11char_traitsIcESaIcEEEiRKNS2_12basic_stringIcS5_S6_EE
libkim-api.so.2:_ZNK3KIM17ModelDriverCreate8ToStringB5cxx11Ev
libkim-api.so.2:_ZNK3KIM18CollectionItemType5KnownEv
libkim-api.so.2:_ZNK3KIM18CollectionItemType8ToStringB5cxx11Ev
libkim-api.so.2:_ZNK3KIM18CollectionItemTypeeqERKS0_
libkim-api.so.2:_ZNK3KIM18CollectionItemTypeneERKS0_
libkim-api.so.2:_ZNK3KIM19ComputeArgumentName5KnownEv
libkim-api.so.2:_ZNK3KIM19ComputeArgumentName8ToStringB5cxx11Ev
libkim-api.so.2:_ZNK3KIM19ComputeArgumentNameeqERKS0_
libkim-api.so.2:_ZNK3KIM19ComputeArgumentNameneERKS0_
libkim-api.so.2:_ZNK3KIM19ComputeCallbackName5KnownEv
libkim-api.so.2:_ZNK3KIM19ComputeCallbackName8ToStringB5cxx11Ev
libkim-api.so.2:_ZNK3KIM19ComputeCallbackNameeqERKS0_
libkim-api.so.2:_ZNK3KIM19ComputeCallbackNameneERKS0_
libkim-api.so.2:_ZNK3KIM19ModelImplementation12GetModelNameEPPKNSt7__cxx1112basic_stringIcSt11char_traitsIcESaIcEEE
libkim-api.so.2:_ZNK3KIM19ModelImplementation12GetParameterEiiPd
libkim-api.so.2:_ZNK3KIM19ModelImplementation12GetParameterEiiPi
libkim-api.so.2:_ZNK3KIM19ModelImplementation12ModelComputeEPKNS_16ComputeArgumentsE
libkim-api.so.2:_ZNK3KIM19ModelImplementation13IsCIdentifierERKNSt7__cxx1112basic_stringIcSt11char_traitsIcESaIcEEE
libkim-api.so.2:_ZNK3KIM19ModelImplementation14GetExtensionIDEPPKNSt7__cxx1112basic_stringIcSt11char_traitsIcESaIcEEE
libkim-api.so.2:_ZNK3KIM19ModelImplementation16IsRoutinePresentENS_16ModelRoutineNameEPiS2_
libkim-api.so.2:_ZNK3KIM19ModelImplementation20GetInfluenceDistanceEPd
libkim-api.so.2:_ZNK3KIM19ModelImplementation20GetParameterFileNameEiPPKNSt7__cxx1112basic_stringIcSt11char_traitsIcESaIcEEE
libkim-api.so.2:_ZNK3KIM19ModelImplementation20GetParameterMetadataEiPNS_8DataTypeEPiPPKNSt7__cxx1112basic_stringIcSt11char_traitsIcESaIcEEESC_
libkim-api.so.2:_ZNK3KIM19ModelImplementation20SetParameterFileNameERKNSt7__cxx1112basic_stringIcSt11char_traitsIcESaIcEEE
libkim-api.so.2:_ZNK3KIM19ModelImplementation21GetModelBufferPointerEPPv
libkim-api.so.2:_ZNK3KIM19ModelImplementation21GetNumberOfParametersEPi
libkim-api.so.2:_ZNK3KIM19ModelImplementation22ComputeArgumentsCreateEPPNS_16ComputeArgumentsE
libkim-api.so.2:_ZNK3KIM19ModelImplementation23ComputeArgumentsDestroyEPPNS_16ComputeArgumentsE
libkim-api.so.2:_ZNK3KIM19ModelImplementation23GetNeighborListPointersEPiPPKdPPKi
libkim-api.so.2:_ZNK3KIM19ModelImplementation23WriteParameterizedModelERKNSt7__cxx1112basic_stringIcSt11char_traitsIcESaIcEEES8_
libkim-api.so.2:_ZNK3KIM19ModelImplementation24GetSpeciesSupportAndCodeENS_11SpeciesNameEPiS2_
libkim-api.so.2:_ZNK3KIM19ModelImplementation25GetNumberOfParameterFilesEPi
libkim-api.so.2:_ZNK3KIM19ModelImplementation25GetSimulatorBufferPointerEPPv
libkim-api.so.2:_ZNK3KIM19ModelImplementation27ModelComputeArgumentsCreateEPNS_16ComputeArgumentsE
libkim-api.so.2:_ZNK3KIM19ModelImplementation28ModelComputeArgumentsDestroyEPNS_16ComputeArgumentsE
libkim-api.so.2:_ZNK3KIM19ModelImplementation28ModelWriteParameterizedModelEv
libkim-api.so.2:_ZNK3KIM19ModelImplementation7ComputeEPKNS_16ComputeArgumentsE
libkim-api.so.2:_ZNK3KIM19ModelImplementation7GetPathEPPKNSt7__cxx1112basic_stringIcSt11char_traitsIcESaIcEEE
libkim-api.so.2:_ZNK3KIM19ModelImplementation8GetUnitsEPNS_10LengthUnitEPNS_10EnergyUnitEPNS_10ChargeUnitEPNS_15TemperatureUnitEPNS_8TimeUnitE
libkim-api.so.2:_ZNK3KIM19ModelImplementation8LogEntryENS_12LogVerbosityERKNSt7__cxx1112basic_stringIcSt11char_traitsIcESaIcEEEiS9_
libkim-api.so.2:_ZNK3KIM19ModelImplementation8LogEntryENS_12LogVerbosityERKNSt7__cxx1118basic_stringstreamIcSt11char_traitsIcESaIcEEEiRKNS2_12basic_stringIcS5_S6_EE
libkim-api.so.2:_ZNK3KIM19ModelImplementation8ToStringB5cxx11Ev
libkim-api.so.2:_ZNK3KIM21ModelComputeArguments15GetNeighborListEiiPiPPKi
libkim-api.so.2:_ZNK3KIM21ModelComputeArguments15ProcessDEDrTermEddPKdii
libkim-api.so.2:_ZNK3KIM21ModelComputeArguments17IsCallbackPresentENS_19ComputeCallbackNameEPi
libkim-api.so.2:_ZNK3KIM21ModelComputeArguments17ProcessD2EDr2TermEdPKdS2_PKiS4_
libkim-api.so.2:_ZNK3KIM21ModelComputeArguments18GetArgumentPointerENS_19ComputeArgumentNameEPPKd
libkim-api.so.2:_ZNK3KIM21ModelComputeArguments18GetArgumentPointerENS_19ComputeArgumentNameEPPKi
libkim-api.so.2:_ZNK3KIM21ModelComputeArguments18GetArgumentPointerENS_19ComputeArgumentNameEPPd
libkim-api.so.2:_ZNK3KIM21ModelComputeArguments18GetArgumentPointerENS_19ComputeArgumentNameEPPi
libkim-api.so.2:_ZNK3KIM21ModelComputeArguments21GetModelBufferPointerEPPv
libkim-api.so.2:_ZNK3KIM21ModelComputeArguments8LogEntryENS_12LogVerbosityERKNSt7__cxx1112basic_stringIcSt11char_traitsIcESaIcEEEiS9_
libkim-api.so.2:_ZNK3KIM21ModelComputeArguments8LogEntryENS_12LogVerbosityERKNSt7__cxx1118basic_stringstreamIcSt11char_traitsIcESaIcEEEiRKNS2_12basic_stringIcS5_S6_EE
libkim-api.so.2:_ZNK3KIM21ModelComputeArguments8ToStringB5cxx11Ev
libkim-api.so.2:_ZNK3KIM25CollectionsImplementation11GetItemTypeERKNSt7__cxx1112basic_stringIcSt11char_traitsIcESaIcEEEPNS_18CollectionItemTypeE
libkim-api.so.2:_ZNK3KIM25CollectionsImplementation16GetDirectoryNameEiPPKNSt7__cxx1112basic_stringIcSt11char_traitsIcESaIcEEE
libkim-api.so.2:_ZNK3KIM25CollectionsImplementation17GetItemNameByTypeEiPPKNSt7__cxx1112basic_stringIcSt11char_traitsIcESaIcEEE
libkim-api.so.2:_ZNK3KIM25CollectionsImplementation19GetItemMetadataFileEiPPKNSt7__cxx1112basic_stringIcSt11char_traitsIcESaIcEEEPjPPKhPiS9_
libkim-api.so.2:_ZNK3KIM25CollectionsImplementation23GetProjectNameAndSemVerEPPKNSt7__cxx1112basic_stringIcSt11char_traitsIcESaIcEEES9_
libkim-api.so.2:_ZNK3KIM25CollectionsImplementation24GetConfigurationFileNameEPPKNSt7__cxx1112basic_stringIcSt11char_traitsIcESaIcEEE
libkim-api.so.2:_ZNK3KIM25CollectionsImplementation26GetEnvironmentVariableNameENS_18CollectionItemTypeEPPKNSt7__cxx1112basic_stringIcSt11char_traitsIcESaIcEEE
libkim-api.so.2:_ZNK3KIM25CollectionsImplementation30GetItemNameByCollectionAndTypeEiPPKNSt7__cxx1112basic_stringIcSt11char_traitsIcESaIcEEE
libkim-api.so.2:_ZNK3KIM25CollectionsImplementation35GetItemLibraryFileNameAndCollectionENS_18CollectionItemTypeERKNSt7__cxx1112basic_stringIcSt11char_traitsIcESaIcEEEPPS8_PNS_10CollectionE
libkim-api.so.2:_ZNK3KIM25CollectionsImplementation38GetItemMetadataFileByCollectionAndTypeEiPPKNSt7__cxx1112basic_stringIcSt11char_traitsIcESaIcEEEPjPPKhPiS9_
libkim-api.so.2:_ZNK3KIM25CollectionsImplementation39GetConfigurationFileEnvironmentVariableEPPKNSt7__cxx1112basic_stringIcSt11char_traitsIcESaIcEEES9_
libkim-api.so.2:_ZNK3KIM25CollectionsImplementation41GetItemLibraryFileNameByCollectionAndTypeENS_10CollectionENS_18CollectionItemTypeERKNSt7__cxx1112basic_stringIcSt11char_traitsIcESaIcEEEPPS9_
libkim-api.so.2:_ZNK3KIM25CollectionsImplementation8LogEntryENS_12LogVerbosityERKNSt7__cxx1112basic_stringIcSt11char_traitsIcESaIcEEEiS9_
libkim-api.so.2:_ZNK3KIM25CollectionsImplementation8LogEntryENS_12LogVerbosityERKNSt7__cxx1118basic_stringstreamIcSt11char_traitsIcESaIcEEEiRKNS2_12basic_stringIcS5_S6_EE
libkim-api.so.2:_ZNK3KIM27ModelComputeArgumentsCreate8LogEntryENS_12LogVerbosityERKNSt7__cxx1112basic_stringIcSt11char_traitsIcESaIcEEEiS9_
libkim-api.so.2:_ZNK3KIM27ModelComputeArgumentsCreate8LogEntryENS_12LogVerbosityERKNSt7__cxx1118basic_stringstreamIcSt11char_traitsIcESaIcEEEiRKNS2_12basic_stringIcS5_S6_EE
libkim-api.so.2:_ZNK3KIM27ModelComputeArgumentsCreate8ToStringB5cxx11Ev
libkim-api.so.2:_ZNK3KIM28ModelComputeArgumentsDestroy21GetModelBufferPointerEPPv
libkim-api.so.2:_ZNK3KIM28ModelComputeArgumentsDestroy8LogEntryENS_12LogVerbosityERKNSt7__cxx1112basic_stringIcSt11char_traitsIcESaIcEEEiS9_
libkim-api.so.2:_ZNK3KIM28ModelComputeArgumentsDestroy8LogEntryENS_12LogVerbosityERKNSt7__cxx1118basic_stringstreamIcSt11char_traitsIcESaIcEEEiRKNS2_12basic_stringIcS5_S6_EE
libkim-api.so.2:_ZNK3KIM28ModelComputeArgumentsDestroy8ToStringB5cxx11Ev
libkim-api.so.2:_ZNK3KIM28ModelWriteParameterizedModel12GetModelNameEPPKNSt7__cxx1112basic_stringIcSt11char_traitsIcESaIcEEE
libkim-api.so.2:_ZNK3KIM28ModelWriteParameterizedModel20SetParameterFileNameERKNSt7__cxx1112basic_stringIcSt11char_traitsIcESaIcEEE
libkim-api.so.2:_ZNK3KIM28ModelWriteParameterizedModel21GetModelBufferPointerEPPv
libkim-api.so.2:_ZNK3KIM28ModelWriteParameterizedModel7GetPathEPPKNSt7__cxx1112basic_stringIcSt11char_traitsIcESaIcEEE
libkim-api.so.2:_ZNK3KIM28ModelWriteParameterizedModel8LogEntryENS_12LogVerbosityERKNSt7__cxx1112basic_stringIcSt11char_traitsIcESaIcEEEiS9_
libkim-api.so.2:_ZNK3KIM28ModelWriteParameterizedModel8LogEntryENS_12LogVerbosityERKNSt7__cxx1118basic_stringstreamIcSt11char_traitsIcESaIcEEEiRKNS2_12basic_stringIcS5_S6_EE
libkim-api.so.2:_ZNK3KIM28ModelWriteParameterizedModel8ToStringB5cxx11Ev
libkim-api.so.2:_ZNK3KIM28SimulatorModelImplementation17TemplateMapIsOpenEv
libkim-api.so.2:_ZNK3KIM28SimulatorModelImplementation19GetSupportedSpeciesEiPPKNSt7__cxx1112basic_stringIcSt11char_traitsIcESaIcEEE
libkim-api.so.2:_ZNK3KIM28SimulatorModelImplementation20GetParameterFileNameEiPPKNSt7__cxx1112basic_stringIcSt11char_traitsIcESaIcEEE
libkim-api.so.2:_ZNK3KIM28SimulatorModelImplementation21GetSimulatorFieldLineEiiPPKNSt7__cxx1112basic_stringIcSt11char_traitsIcESaIcEEE
libkim-api.so.2:_ZNK3KIM28SimulatorModelImplementation24GetSpecificationFileNameEPPKNSt7__cxx1112basic_stringIcSt11char_traitsIcESaIcEEE
libkim-api.so.2:_ZNK3KIM28SimulatorModelImplementation25GetNumberOfParameterFilesEPi
libkim-api.so.2:_ZNK3KIM28SimulatorModelImplementation25GetSimulatorBufferPointerEPPv
libkim-api.so.2:_ZNK3KIM28SimulatorModelImplementation25GetSimulatorFieldMetadataEiPiPPKNSt7__cxx1112basic_stringIcSt11char_traitsIcESaIcEEE
libkim-api.so.2:_ZNK3KIM28SimulatorModelImplementation26GetNumberOfSimulatorFieldsEPi
libkim-api.so.2:_ZNK3KIM28SimulatorModelImplementation26GetSimulatorNameAndVersionEPPKNSt7__cxx1112basic_stringIcSt11char_traitsIcESaIcEEES9_
libkim-api.so.2:_ZNK3KIM28SimulatorModelImplementation27GetNumberOfSupportedSpeciesEPi
libkim-api.so.2:_ZNK3KIM28SimulatorModelImplementation29GetParameterFileDirectoryNameEPPKNSt7__cxx1112basic_stringIcSt11char_traitsIcESaIcEEE
libkim-api.so.2:_ZNK3KIM28SimulatorModelImplementation8LogEntryENS_12LogVerbosityERKNSt7__cxx1112basic_stringIcSt11char_traitsIcESaIcEEEiS9_
libkim-api.so.2:_ZNK3KIM28SimulatorModelImplementation8LogEntryENS_12LogVerbosityERKNSt7__cxx1118basic_stringstreamIcSt11char_traitsIcESaIcEEEiRKNS2_12basic_stringIcS5_S6_EE
libkim-api.so.2:_ZNK3KIM28SimulatorModelImplementation8ParseEdnERN3edn7EdnNodeE
libkim-api.so.2:_ZNK3KIM28SimulatorModelImplementation8ToStringB5cxx11Ev
libkim-api.so.2:_ZNK3KIM30ComputeArgumentsImplementation15GetNeighborListEiiPiPPKi
libkim-api.so.2:_ZNK3KIM30ComputeArgumentsImplementation15ProcessDEDrTermEddPKdii
libkim-api.so.2:_ZNK3KIM30ComputeArgumentsImplementation17IsCallbackPresentENS_19ComputeCallbackNameEPi
libkim-api.so.2:_ZNK3KIM30ComputeArgumentsImplementation17ProcessD2EDr2TermEdPKdS2_PKiS4_
libkim-api.so.2:_ZNK3KIM30ComputeArgumentsImplementation18GetArgumentPointerENS_19ComputeArgumentNameEPPKd
libkim-api.so.2:_ZNK3KIM30ComputeArgumentsImplementation18GetArgumentPointerENS_19ComputeArgumentNameEPPKi
libkim-api.so.2:_ZNK3KIM30ComputeArgumentsImplementation18GetArgumentPointerENS_19ComputeArgumentNameEPPd
libkim-api.so.2:_ZNK3KIM30ComputeArgumentsImplementation18GetArgumentPointerENS_19ComputeArgumentNameEPPi
libkim-api.so.2:_ZNK3KIM30ComputeArgumentsImplementation21GetModelBufferPointerEPPv
libkim-api.so.2:_ZNK3KIM30ComputeArgumentsImplementation24GetArgumentSupportStatusENS_19ComputeArgumentNameEPNS_13SupportStatusE
libkim-api.so.2:_ZNK3KIM30ComputeArgumentsImplementation24GetCallbackSupportStatusENS_19ComputeCallbackNameEPNS_13SupportStatusE
libkim-api.so.2:_ZNK3KIM30ComputeArgumentsImplementation25GetSimulatorBufferPointerEPPv
libkim-api.so.2:_ZNK3KIM30ComputeArgumentsImplementation42AreAllRequiredArgumentsAndCallbacksPresentEPi
libkim-api.so.2:_ZNK3KIM30ComputeArgumentsImplementation8LogEntryENS_12LogVerbosityERKNSt7__cxx1112basic_stringIcSt11char_traitsIcESaIcEEEiS9_
libkim-api.so.2:_ZNK3KIM30ComputeArgumentsImplementation8LogEntryENS_12LogVerbosityERKNSt7__cxx1118basic_stringstreamIcSt11char_traitsIcESaIcEEEiRKNS2_12basic_stringIcS5_S6_EE
libkim-api.so.2:_ZNK3KIM30ComputeArgumentsImplementation8ToStringB5cxx11Ev
libkim-api.so.2:_ZNK3KIM3Log5GetIDB5cxx11Ev
libkim-api.so.2:_ZNK3KIM3Log8LogEntryENS_12LogVerbosityERKNSt7__cxx1112basic_stringIcSt11char_traitsIcESaIcEEEiS9_
libkim-api.so.2:_ZNK3KIM3Log8LogEntryENS_12LogVerbosityERKNSt7__cxx1118basic_stringstreamIcSt11char_traitsIcESaIcEEEiRKNS2_12basic_stringIcS5_S6_EE
libkim-api.so.2:_ZNK3KIM5Model12GetParameterEiiPd
libkim-api.so.2:_ZNK3KIM5Model12GetParameterEiiPi
libkim-api.so.2:_ZNK3KIM5Model16IsRoutinePresentENS_16ModelRoutineNameEPiS2_
libkim-api.so.2:_ZNK3KIM5Model20GetInfluenceDistanceEPd
libkim-api.so.2:_ZNK3KIM5Model20GetParameterMetadataEiPNS_8DataTypeEPiPPKNSt7__cxx1112basic_stringIcSt11char_traitsIcESaIcEEESC_
libkim-api.so.2:_ZNK3KIM5Model21GetNumberOfParametersEPi
libkim-api.so.2:_ZNK3KIM5Model22ComputeArgumentsCreateEPPNS_16ComputeArgumentsE
libkim-api.so.2:_ZNK3KIM5Model23ComputeArgumentsDestroyEPPNS_16ComputeArgumentsE
libkim-api.so.2:_ZNK3KIM5Model23GetNeighborListPointersEPiPPKdPPKi
libkim-api.so.2:_ZNK3KIM5Model23WriteParameterizedModelERKNSt7__cxx1112basic_stringIcSt11char_traitsIcESaIcEEES8_
libkim-api.so.2:_ZNK3KIM5Model24GetSpeciesSupportAndCodeENS_11SpeciesNameEPiS2_
libkim-api.so.2:_ZNK3KIM5Model25GetSimulatorBufferPointerEPPv
libkim-api.so.2:_ZNK3KIM5Model7ComputeEPKNS_16ComputeArgumentsE
libkim-api.so.2:_ZNK3KIM5Model8GetUnitsEPNS_10LengthUnitEPNS_10EnergyUnitEPNS_10ChargeUnitEPNS_15TemperatureUnitEPNS_8TimeUnitE
libkim-api.so.2:_ZNK3KIM5Model8ToStringB5cxx11Ev
libkim-api.so.2:_ZNK3KIM8DataType5KnownEv
libkim-api.so.2:_ZNK3KIM8DataType8ToStringB5cxx11Ev
libkim-api.so.2:_ZNK3KIM8DataTypeeqERKS0_
libkim-api.so.2:_ZNK3KIM8DataTypeneERKS0_
libkim-api.so.2:_ZNK3KIM8TimeUnit5KnownEv
libkim-api.so.2:_ZNK3KIM8TimeUnit8ToStringB5cxx11Ev
libkim-api.so.2:_ZNK3KIM8TimeUniteqERKS0_
libkim-api.so.2:_ZNK3KIM8TimeUnitneERKS0_
libkim-api.so.2:_ZNK3KIM9Numbering5KnownEv
libkim-api.so.2:_ZNK3KIM9Numbering8ToStringB5cxx11Ev
libkim-api.so.2:_ZNK3KIM9NumberingeqERKS0_
libkim-api.so.2:_ZNK3KIM9NumberingneERKS0_
libkim-api.so.2:__kim_charge_unit_module_MOD___copy_kim_charge_unit_module_Kim_charge_unit_type
libkim-api.so.2:__kim_charge_unit_module_MOD_kim_charge_unit_equal
libkim-api.so.2:__kim_charge_unit_module_MOD_kim_charge_unit_from_string
libkim-api.so.2:__kim_charge_unit_module_MOD_kim_charge_unit_known
libkim-api.so.2:__kim_charge_unit_module_MOD_kim_charge_unit_not_equal
libkim-api.so.2:__kim_charge_unit_module_MOD_kim_charge_unit_to_string
libkim-api.so.2:__kim_charge_unit_module_MOD_kim_get_charge_unit
libkim-api.so.2:__kim_charge_unit_module_MOD_kim_get_number_of_charge_units
libkim-api.so.2:__kim_collection_item_type_module_MOD___copy_3F13D9B
libkim-api.so.2:__kim_collection_item_type_module_MOD_kim_collection_item_type_equal
libkim-api.so.2:__kim_collection_item_type_module_MOD_kim_collection_item_type_from_string
libkim-api.so.2:__kim_collection_item_type_module_MOD_kim_collection_item_type_known
libkim-api.so.2:__kim_collection_item_type_module_MOD_kim_collection_item_type_not_equal
libkim-api.so.2:__kim_collection_item_type_module_MOD_kim_collection_item_type_to_string
libkim-api.so.2:__kim_collection_item_type_module_MOD_kim_get_collection_item_type
libkim-api.so.2:__kim_collection_item_type_module_MOD_kim_get_number_of_collection_item_types
libkim-api.so.2:__kim_collection_module_MOD___copy_kim_collection_module_Kim_collection_type
libkim-api.so.2:__kim_collection_module_MOD_kim_collection_equal
libkim-api.so.2:__kim_collection_module_MOD_kim_collection_from_string
libkim-api.so.2:__kim_collection_module_MOD_kim_collection_known
libkim-api.so.2:__kim_collection_module_MOD_kim_collection_not_equal
libkim-api.so.2:__kim_collection_module_MOD_kim_collection_to_string
libkim-api.so.2:__kim_collection_module_MOD_kim_get_collection
libkim-api.so.2:__kim_collection_module_MOD_kim_get_number_of_collections
libkim-api.so.2:__kim_collections_module_MOD___copy_308617E
libkim-api.so.2:__kim_collections_module_MOD_kim_collections_cache_list_of_directory_names
libkim-api.so.2:__kim_collections_module_MOD_kim_collections_cache_list_of_item_metadata_files
libkim-api.so.2:__kim_collections_module_MOD_kim_collections_cache_list_of_item_names_by_collection_and_type
libkim-api.so.2:__kim_collections_module_MOD_kim_collections_cache_list_of_item_names_by_type
libkim-api.so.2:__kim_collections_module_MOD_kim_collections_create
libkim-api.so.2:__kim_collections_module_MOD_kim_collections_destroy
libkim-api.so.2:__kim_collections_module_MOD_kim_collections_get_configuration_file_environment_variable
libkim-api.so.2:__kim_collections_module_MOD_kim_collections_get_configuration_file_name
libkim-api.so.2:__kim_collections_module_MOD_kim_collections_get_directory_name
libkim-api.so.2:__kim_collections_module_MOD_kim_collections_get_environment_variable_name
libkim-api.so.2:__kim_collections_module_MOD_kim_collections_get_item_library_file_name_and_collection
libkim-api.so.2:__kim_collections_module_MOD_kim_collections_get_item_library_file_name_by_coll_and_type
libkim-api.so.2:__kim_collections_module_MOD_kim_collections_get_item_metadata_file_length
libkim-api.so.2:__kim_collections_module_MOD_kim_collections_get_item_metadata_file_length_by_coll_and_type
libkim-api.so.2:__kim_collections_module_MOD_kim_collections_get_item_metadata_file_values
libkim-api.so.2:__kim_collections_module_MOD_kim_collections_get_item_metadata_file_values_by_coll_and_type
libkim-api.so.2:__kim_collections_module_MOD_kim_collections_get_item_name_by_collection_and_type
libkim-api.so.2:__kim_collections_module_MOD_kim_collections_get_item_name_by_type
libkim-api.so.2:__kim_collections_module_MOD_kim_collections_get_item_type
libkim-api.so.2:__kim_collections_module_MOD_kim_collections_get_project_name_and_sem_ver
libkim-api.so.2:__kim_collections_module_MOD_kim_collections_handle_equal
libkim-api.so.2:__kim_collections_module_MOD_kim_collections_handle_not_equal
libkim-api.so.2:__kim_collections_module_MOD_kim_collections_pop_log_verbosity
libkim-api.so.2:__kim_collections_module_MOD_kim_collections_push_log_verbosity
libkim-api.so.2:__kim_collections_module_MOD_kim_collections_set_log_id
libkim-api.so.2:__kim_collections_module_MOD_kim_colls_cache_list_of_item_metadata_files_by_coll_and_type
libkim-api.so.2:__kim_compute_argument_name_module_MOD___copy_3A68B2D
libkim-api.so.2:__kim_compute_argument_name_module_MOD_kim_compute_argument_name_equal
libkim-api.so.2:__kim_compute_argument_name_module_MOD_kim_compute_argument_name_from_string
libkim-api.so.2:__kim_compute_argument_name_module_MOD_kim_compute_argument_name_known
libkim-api.so.2:__kim_compute_argument_name_module_MOD_kim_compute_argument_name_not_equal
libkim-api.so.2:__kim_compute_argument_name_module_MOD_kim_compute_argument_name_to_string
libkim-api.so.2:__kim_compute_argument_name_module_MOD_kim_get_compute_argument_data_type
libkim-api.so.2:__kim_compute_argument_name_module_MOD_kim_get_compute_argument_name
libkim-api.so.2:__kim_compute_argument_name_module_MOD_kim_get_number_of_compute_argument_names
libkim-api.so.2:__kim_compute_arguments_module_MOD___copy_3DE0F3E
libkim-api.so.2:__kim_compute_arguments_module_MOD_kim_compute_arguments_are_all_required_present
libkim-api.so.2:__kim_compute_arguments_module_MOD_kim_compute_arguments_get_argument_support_status
libkim-api.so.2:__kim_compute_arguments_module_MOD_kim_compute_arguments_get_callback_support_status
libkim-api.so.2:__kim_compute_arguments_module_MOD_kim_compute_arguments_get_simulator_buffer_pointer
libkim-api.so.2:__kim_compute_arguments_module_MOD_kim_compute_arguments_handle_equal
libkim-api.so.2:__kim_compute_arguments_module_MOD_kim_compute_arguments_handle_not_equal
libkim-api.so.2:__kim_compute_arguments_module_MOD_kim_compute_arguments_pop_log_verbosity
libkim-api.so.2:__kim_compute_arguments_module_MOD_kim_compute_arguments_push_log_verbosity
libkim-api.so.2:__kim_compute_arguments_module_MOD_kim_compute_arguments_set_argument_pointer_double0
libkim-api.so.2:__kim_compute_arguments_module_MOD_kim_compute_arguments_set_argument_pointer_double1
libkim-api.so.2:__kim_compute_arguments_module_MOD_kim_compute_arguments_set_argument_pointer_double2
libkim-api.so.2:__kim_compute_arguments_module_MOD_kim_compute_arguments_set_argument_pointer_int0
libkim-api.so.2:__kim_compute_arguments_module_MOD_kim_compute_arguments_set_argument_pointer_int1
libkim-api.so.2:__kim_compute_arguments_module_MOD_kim_compute_arguments_set_argument_pointer_int2
libkim-api.so.2:__kim_compute_arguments_module_MOD_kim_compute_arguments_set_callback_pointer
libkim-api.so.2:__kim_compute_arguments_module_MOD_kim_compute_arguments_set_log_id
libkim-api.so.2:__kim_compute_arguments_module_MOD_kim_compute_arguments_set_simulator_buffer_pointer
libkim-api.so.2:__kim_compute_arguments_module_MOD_kim_compute_arguments_to_string
libkim-api.so.2:__kim_compute_callback_name_module_MOD___copy_1EE9D2D
libkim-api.so.2:__kim_compute_callback_name_module_MOD_kim_compute_callback_name_equal
libkim-api.so.2:__kim_compute_callback_name_module_MOD_kim_compute_callback_name_from_string
libkim-api.so.2:__kim_compute_callback_name_module_MOD_kim_compute_callback_name_known
libkim-api.so.2:__kim_compute_callback_name_module_MOD_kim_compute_callback_name_not_equal
libkim-api.so.2:__kim_compute_callback_name_module_MOD_kim_compute_callback_name_to_string
libkim-api.so.2:__kim_compute_callback_name_module_MOD_kim_get_compute_callback_name
libkim-api.so.2:__kim_compute_callback_name_module_MOD_kim_get_number_of_compute_callback_names
libkim-api.so.2:__kim_convert_string_module_MOD_kim_convert_c_char_array_to_string
libkim-api.so.2:__kim_convert_string_module_MOD_kim_convert_c_char_ptr_to_string
libkim-api.so.2:__kim_convert_string_module_MOD_kim_convert_string_to_c_char_array
libkim-api.so.2:__kim_data_type_module_MOD___copy_kim_data_type_module_Kim_data_type_type
libkim-api.so.2:__kim_data_type_module_MOD_kim_data_type_equal
libkim-api.so.2:__kim_data_type_module_MOD_kim_data_type_from_string
libkim-api.so.2:__kim_data_type_module_MOD_kim_data_type_known
libkim-api.so.2:__kim_data_type_module_MOD_kim_data_type_not_equal
libkim-api.so.2:__kim_data_type_module_MOD_kim_data_type_to_string
libkim-api.so.2:__kim_data_type_module_MOD_kim_get_data_type
libkim-api.so.2:__kim_data_type_module_MOD_kim_get_number_of_data_types
libkim-api.so.2:__kim_energy_unit_module_MOD___copy_kim_energy_unit_module_Kim_energy_unit_type
libkim-api.so.2:__kim_energy_unit_module_MOD_kim_energy_unit_equal
libkim-api.so.2:__kim_energy_unit_module_MOD_kim_energy_unit_from_string
libkim-api.so.2:__kim_energy_unit_module_MOD_kim_energy_unit_known
libkim-api.so.2:__kim_energy_unit_module_MOD_kim_energy_unit_not_equal
libkim-api.so.2:__kim_energy_unit_module_MOD_kim_energy_unit_to_string
libkim-api.so.2:__kim_energy_unit_module_MOD_kim_get_energy_unit
libkim-api.so.2:__kim_energy_unit_module_MOD_kim_get_number_of_energy_units
libkim-api.so.2:__kim_interoperable_types_module_MOD___copy_124F77D
libkim-api.so.2:__kim_interoperable_types_module_MOD___copy_1DF9856
libkim-api.so.2:__kim_interoperable_types_module_MOD___copy_2244C22
libkim-api.so.2:__kim_interoperable_types_module_MOD___copy_2AE2A7E
libkim-api.so.2:__kim_interoperable_types_module_MOD___copy_43FCC87
libkim-api.so.2:__kim_interoperable_types_module_MOD___copy_4B75B2A
libkim-api.so.2:__kim_interoperable_types_module_MOD___copy_4FB0818
libkim-api.so.2:__kim_interoperable_types_module_MOD___copy_5151BE6
libkim-api.so.2:__kim_interoperable_types_module_MOD___copy_5542435
libkim-api.so.2:__kim_interoperable_types_module_MOD___copy_5879064
libkim-api.so.2:__kim_interoperable_types_module_MOD___copy_58801B3
libkim-api.so.2:__kim_interoperable_types_module_MOD___copy_5E91F8E
libkim-api.so.2:__kim_interoperable_types_module_MOD___copy_6A13FD
libkim-api.so.2:__kim_interoperable_types_module_MOD___copy_kim_interoperable_types_module_Kim_log_type
libkim-api.so.2:__kim_interoperable_types_module_MOD___copy_kim_interoperable_types_module_Kim_model_type
libkim-api.so.2:__kim_language_name_module_MOD___copy_kim_language_name_module_Kim_language_name_type
libkim-api.so.2:__kim_language_name_module_MOD_kim_get_language_name
libkim-api.so.2:__kim_language_name_module_MOD_kim_get_number_of_language_names
libkim-api.so.2:__kim_language_name_module_MOD_kim_language_name_equal
libkim-api.so.2:__kim_language_name_module_MOD_kim_language_name_from_string
libkim-api.so.2:__kim_language_name_module_MOD_kim_language_name_known
libkim-api.so.2:__kim_language_name_module_MOD_kim_language_name_not_equal
libkim-api.so.2:__kim_language_name_module_MOD_kim_language_name_to_string
libkim-api.so.2:__kim_length_unit_module_MOD___copy_kim_length_unit_module_Kim_length_unit_type
libkim-api.so.2:__kim_length_unit_module_MOD_kim_get_length_unit
libkim-api.so.2:__kim_length_unit_module_MOD_kim_get_number_of_length_units
libkim-api.so.2:__kim_length_unit_module_MOD_kim_length_unit_equal
libkim-api.so.2:__kim_length_unit_module_MOD_kim_length_unit_from_string
libkim-api.so.2:__kim_length_unit_module_MOD_kim_length_unit_known
libkim-api.so.2:__kim_length_unit_module_MOD_kim_length_unit_not_equal
libkim-api.so.2:__kim_length_unit_module_MOD_kim_length_unit_to_string
libkim-api.so.2:__kim_log_module_MOD___copy_kim_log_module_Kim_log_handle_type
libkim-api.so.2:__kim_log_module_MOD_kim_log_create
libkim-api.so.2:__kim_log_module_MOD_kim_log_destroy
libkim-api.so.2:__kim_log_module_MOD_kim_log_get_id
libkim-api.so.2:__kim_log_module_MOD_kim_log_handle_equal
libkim-api.so.2:__kim_log_module_MOD_kim_log_handle_not_equal
libkim-api.so.2:__kim_log_module_MOD_kim_log_log_entry
libkim-api.so.2:__kim_log_module_MOD_kim_log_pop_default_verbosity
libkim-api.so.2:__kim_log_module_MOD_kim_log_pop_verbosity
libkim-api.so.2:__kim_log_module_MOD_kim_log_push_default_verbosity
libkim-api.so.2:__kim_log_module_MOD_kim_log_push_verbosity
libkim-api.so.2:__kim_log_module_MOD_kim_log_set_id
libkim-api.so.2:__kim_log_verbosity_module_MOD___copy_kim_log_verbosity_module_Kim_log_verbosity_type
libkim-api.so.2:__kim_log_verbosity_module_MOD_kim_get_log_verbosity
libkim-api.so.2:__kim_log_verbosity_module_MOD_kim_get_number_of_log_verbosities
libkim-api.so.2:__kim_log_verbosity_module_MOD_kim_log_verbosity_equal
libkim-api.so.2:__kim_log_verbosity_module_MOD_kim_log_verbosity_from_string
libkim-api.so.2:__kim_log_verbosity_module_MOD_kim_log_verbosity_greater_than
libkim-api.so.2:__kim_log_verbosity_module_MOD_kim_log_verbosity_greater_than_equal
libkim-api.so.2:__kim_log_verbosity_module_MOD_kim_log_verbosity_known
libkim-api.so.2:__kim_log_verbosity_module_MOD_kim_log_verbosity_less_than
libkim-api.so.2:__kim_log_verbosity_module_MOD_kim_log_verbosity_less_than_equal
libkim-api.so.2:__kim_log_verbosity_module_MOD_kim_log_verbosity_not_equal
libkim-api.so.2:__kim_log_verbosity_module_MOD_kim_log_verbosity_to_string
libkim-api.so.2:__kim_model_compute_arguments_create_module_MOD___copy_4C7CCC
libkim-api.so.2:__kim_model_compute_arguments_create_module_MOD_kim_model_compute_arguments_create_handle_equal
libkim-api.so.2:__kim_model_compute_arguments_create_module_MOD_kim_model_compute_arguments_create_handle_not_equal
libkim-api.so.2:__kim_model_compute_arguments_create_module_MOD_kim_model_compute_arguments_create_log_entry
libkim-api.so.2:__kim_model_compute_arguments_create_module_MOD_kim_model_compute_arguments_create_set_argument_support_status
libkim-api.so.2:__kim_model_compute_arguments_create_module_MOD_kim_model_compute_arguments_create_set_callback_support_status
libkim-api.so.2:__kim_model_compute_arguments_create_module_MOD_kim_model_compute_arguments_create_set_model_buffer_pointer
libkim-api.so.2:__kim_model_compute_arguments_create_module_MOD_kim_model_compute_arguments_create_to_string
libkim-api.so.2:__kim_model_compute_arguments_destroy_module_MOD___copy_23E05FE
libkim-api.so.2:__kim_model_compute_arguments_destroy_module_MOD_kim_model_compute_arguments_destroy_get_model_buffer_pointer
libkim-api.so.2:__kim_model_compute_arguments_destroy_module_MOD_kim_model_compute_arguments_destroy_handle_equal
libkim-api.so.2:__kim_model_compute_arguments_destroy_module_MOD_kim_model_compute_arguments_destroy_handle_not_equal
libkim-api.so.2:__kim_model_compute_arguments_destroy_module_MOD_kim_model_compute_arguments_destroy_log_entry
libkim-api.so.2:__kim_model_compute_arguments_destroy_module_MOD_kim_model_compute_arguments_destroy_to_string
libkim-api.so.2:__kim_model_compute_arguments_module_MOD___copy_286D1BE
libkim-api.so.2:__kim_model_compute_arguments_module_MOD_kim_model_compute_arguments_get_argument_pointer_double0
libkim-api.so.2:__kim_model_compute_arguments_module_MOD_kim_model_compute_arguments_get_argument_pointer_double1
libkim-api.so.2:__kim_model_compute_arguments_module_MOD_kim_model_compute_arguments_get_argument_pointer_double2
libkim-api.so.2:__kim_model_compute_arguments_module_MOD_kim_model_compute_arguments_get_argument_pointer_int0
libkim-api.so.2:__kim_model_compute_arguments_module_MOD_kim_model_compute_arguments_get_argument_pointer_int1
libkim-api.so.2:__kim_model_compute_arguments_module_MOD_kim_model_compute_arguments_get_argument_pointer_int2
libkim-api.so.2:__kim_model_compute_arguments_module_MOD_kim_model_compute_arguments_get_model_buffer_pointer
libkim-api.so.2:__kim_model_compute_arguments_module_MOD_kim_model_compute_arguments_get_neighbor_list
libkim-api.so.2:__kim_model_compute_arguments_module_MOD_kim_model_compute_arguments_handle_equal
libkim-api.so.2:__kim_model_compute_arguments_module_MOD_kim_model_compute_arguments_handle_not_equal
libkim-api.so.2:__kim_model_compute_arguments_module_MOD_kim_model_compute_arguments_is_callback_present
libkim-api.so.2:__kim_model_compute_arguments_module_MOD_kim_model_compute_arguments_log_entry
libkim-api.so.2:__kim_model_compute_arguments_module_MOD_kim_model_compute_arguments_process_d2edr2_term
libkim-api.so.2:__kim_model_compute_arguments_module_MOD_kim_model_compute_arguments_process_dedr_term
libkim-api.so.2:__kim_model_compute_arguments_module_MOD_kim_model_compute_arguments_set_model_buffer_pointer
libkim-api.so.2:__kim_model_compute_arguments_module_MOD_kim_model_compute_arguments_to_string
libkim-api.so.2:__kim_model_compute_module_MOD___copy_309F4FE
libkim-api.so.2:__kim_model_compute_module_MOD_kim_model_compute_get_model_buffer_pointer
libkim-api.so.2:__kim_model_compute_module_MOD_kim_model_compute_handle_equal
libkim-api.so.2:__kim_model_compute_module_MOD_kim_model_compute_handle_not_equal
libkim-api.so.2:__kim_model_compute_module_MOD_kim_model_compute_log_entry
libkim-api.so.2:__kim_model_compute_module_MOD_kim_model_compute_to_string
libkim-api.so.2:__kim_model_create_module_MOD___copy_547212A
libkim-api.so.2:__kim_model_create_module_MOD_kim_model_create_convert_unit
libkim-api.so.2:__kim_model_create_module_MOD_kim_model_create_handle_equal
libkim-api.so.2:__kim_model_create_module_MOD_kim_model_create_handle_not_equal
libkim-api.so.2:__kim_model_create_module_MOD_kim_model_create_log_entry
libkim-api.so.2:__kim_model_create_module_MOD_kim_model_create_set_influence_distance_pointer
libkim-api.so.2:__kim_model_create_module_MOD_kim_model_create_set_model_buffer_pointer
libkim-api.so.2:__kim_model_create_module_MOD_kim_model_create_set_model_numbering
libkim-api.so.2:__kim_model_create_module_MOD_kim_model_create_set_neighbor_list_pointers
libkim-api.so.2:__kim_model_create_module_MOD_kim_model_create_set_parameter_pointer_double
libkim-api.so.2:__kim_model_create_module_MOD_kim_model_create_set_parameter_pointer_integer
libkim-api.so.2:__kim_model_create_module_MOD_kim_model_create_set_routine_pointer
libkim-api.so.2:__kim_model_create_module_MOD_kim_model_create_set_species_code
libkim-api.so.2:__kim_model_create_module_MOD_kim_model_create_set_units
libkim-api.so.2:__kim_model_create_module_MOD_kim_model_create_to_string
libkim-api.so.2:__kim_model_destroy_module_MOD___copy_5A8DDBE
libkim-api.so.2:__kim_model_destroy_module_MOD_kim_model_destroy_get_model_buffer_pointer
libkim-api.so.2:__kim_model_destroy_module_MOD_kim_model_destroy_handle_equal
libkim-api.so.2:__kim_model_destroy_module_MOD_kim_model_destroy_handle_not_equal
libkim-api.so.2:__kim_model_destroy_module_MOD_kim_model_destroy_log_entry
libkim-api.so.2:__kim_model_destroy_module_MOD_kim_model_destroy_to_string
libkim-api.so.2:__kim_model_driver_create_module_MOD___copy_41417E
libkim-api.so.2:__kim_model_driver_create_module_MOD_kim_model_driver_create_convert_unit
libkim-api.so.2:__kim_model_driver_create_module_MOD_kim_model_driver_create_get_number_of_parameter_files
libkim-api.so.2:__kim_model_driver_create_module_MOD_kim_model_driver_create_get_parameter_file_name
libkim-api.so.2:__kim_model_driver_create_module_MOD_kim_model_driver_create_handle_equal
libkim-api.so.2:__kim_model_driver_create_module_MOD_kim_model_driver_create_handle_not_equal
libkim-api.so.2:__kim_model_driver_create_module_MOD_kim_model_driver_create_log_entry
libkim-api.so.2:__kim_model_driver_create_module_MOD_kim_model_driver_create_set_influence_distance_pointer
libkim-api.so.2:__kim_model_driver_create_module_MOD_kim_model_driver_create_set_model_buffer_pointer
libkim-api.so.2:__kim_model_driver_create_module_MOD_kim_model_driver_create_set_model_numbering
libkim-api.so.2:__kim_model_driver_create_module_MOD_kim_model_driver_create_set_neighbor_list_pointers
libkim-api.so.2:__kim_model_driver_create_module_MOD_kim_model_driver_create_set_parameter_pointer_double
libkim-api.so.2:__kim_model_driver_create_module_MOD_kim_model_driver_create_set_parameter_pointer_integer
libkim-api.so.2:__kim_model_driver_create_module_MOD_kim_model_driver_create_set_routine_pointer
libkim-api.so.2:__kim_model_driver_create_module_MOD_kim_model_driver_create_set_species_code
libkim-api.so.2:__kim_model_driver_create_module_MOD_kim_model_driver_create_set_units
libkim-api.so.2:__kim_model_driver_create_module_MOD_kim_model_driver_create_to_string
libkim-api.so.2:__kim_model_extension_module_MOD___copy_1319A7E
libkim-api.so.2:__kim_model_extension_module_MOD_kim_model_extension_convert_c_char_array_to_string
libkim-api.so.2:__kim_model_extension_module_MOD_kim_model_extension_convert_c_char_ptr_to_string
libkim-api.so.2:__kim_model_extension_module_MOD_kim_model_extension_convert_string_to_c_char_array
libkim-api.so.2:__kim_model_extension_module_MOD_kim_model_extension_get_extension_id
libkim-api.so.2:__kim_model_extension_module_MOD_kim_model_extension_get_model_buffer_pointer
libkim-api.so.2:__kim_model_extension_module_MOD_kim_model_extension_handle_equal
libkim-api.so.2:__kim_model_extension_module_MOD_kim_model_extension_handle_not_equal
libkim-api.so.2:__kim_model_extension_module_MOD_kim_model_extension_log_entry
libkim-api.so.2:__kim_model_extension_module_MOD_kim_model_extension_to_model
libkim-api.so.2:__kim_model_extension_module_MOD_kim_model_extension_to_model_compute
libkim-api.so.2:__kim_model_extension_module_MOD_kim_model_extension_to_model_compute_arguments
libkim-api.so.2:__kim_model_extension_module_MOD_kim_model_extension_to_model_compute_arguments_create
libkim-api.so.2:__kim_model_extension_module_MOD_kim_model_extension_to_model_compute_arguments_destroy
libkim-api.so.2:__kim_model_extension_module_MOD_kim_model_extension_to_model_create
libkim-api.so.2:__kim_model_extension_module_MOD_kim_model_extension_to_model_destroy
libkim-api.so.2:__kim_model_extension_module_MOD_kim_model_extension_to_model_driver_create
libkim-api.so.2:__kim_model_extension_module_MOD_kim_model_extension_to_model_refresh
libkim-api.so.2:__kim_model_extension_module_MOD_kim_model_extension_to_model_write_parameterized_model
libkim-api.so.2:__kim_model_extension_module_MOD_kim_model_extension_to_string
libkim-api.so.2:__kim_model_module_MOD___copy_kim_model_module_Kim_model_handle_type
libkim-api.so.2:__kim_model_module_MOD_kim_model_clear_then_refresh
libkim-api.so.2:__kim_model_module_MOD_kim_model_compute
libkim-api.so.2:__kim_model_module_MOD_kim_model_compute_arguments_create
libkim-api.so.2:__kim_model_module_MOD_kim_model_compute_arguments_destroy
libkim-api.so.2:__kim_model_module_MOD_kim_model_create
libkim-api.so.2:__kim_model_module_MOD_kim_model_destroy
libkim-api.so.2:__kim_model_module_MOD_kim_model_extension
libkim-api.so.2:__kim_model_module_MOD_kim_model_get_influence_distance
libkim-api.so.2:__kim_model_module_MOD_kim_model_get_neighbor_list_values
libkim-api.so.2:__kim_model_module_MOD_kim_model_get_number_of_neighbor_lists
libkim-api.so.2:__kim_model_module_MOD_kim_model_get_number_of_parameters
libkim-api.so.2:__kim_model_module_MOD_kim_model_get_parameter_double
libkim-api.so.2:__kim_model_module_MOD_kim_model_get_parameter_integer
libkim-api.so.2:__kim_model_module_MOD_kim_model_get_parameter_metadata
libkim-api.so.2:__kim_model_module_MOD_kim_model_get_simulator_buffer_pointer
libkim-api.so.2:__kim_model_module_MOD_kim_model_get_species_support_and_code
libkim-api.so.2:__kim_model_module_MOD_kim_model_get_units
libkim-api.so.2:__kim_model_module_MOD_kim_model_handle_equal
libkim-api.so.2:__kim_model_module_MOD_kim_model_handle_not_equal
libkim-api.so.2:__kim_model_module_MOD_kim_model_is_routine_present
libkim-api.so.2:__kim_model_module_MOD_kim_model_pop_log_verbosity
libkim-api.so.2:__kim_model_module_MOD_kim_model_push_log_verbosity
libkim-api.so.2:__kim_model_module_MOD_kim_model_set_log_id
libkim-api.so.2:__kim_model_module_MOD_kim_model_set_parameter_double
libkim-api.so.2:__kim_model_module_MOD_kim_model_set_parameter_integer
libkim-api.so.2:__kim_model_module_MOD_kim_model_set_simulator_buffer_pointer
libkim-api.so.2:__kim_model_module_MOD_kim_model_to_string
libkim-api.so.2:__kim_model_module_MOD_kim_model_write_parameterized_model
libkim-api.so.2:__kim_model_refresh_module_MOD___copy_1FF59FE
libkim-api.so.2:__kim_model_refresh_module_MOD_kim_model_refresh_get_model_buffer_pointer
libkim-api.so.2:__kim_model_refresh_module_MOD_kim_model_refresh_handle_equal
libkim-api.so.2:__kim_model_refresh_module_MOD_kim_model_refresh_handle_not_equal
libkim-api.so.2:__kim_model_refresh_module_MOD_kim_model_refresh_log_entry
libkim-api.so.2:__kim_model_refresh_module_MOD_kim_model_refresh_set_influence_distance_pointer
libkim-api.so.2:__kim_model_refresh_module_MOD_kim_model_refresh_set_neighbor_list_pointers
libkim-api.so.2:__kim_model_refresh_module_MOD_kim_model_refresh_to_string
libkim-api.so.2:__kim_model_routine_name_module_MOD___copy_590802D
libkim-api.so.2:__kim_model_routine_name_module_MOD_kim_get_model_routine_name
libkim-api.so.2:__kim_model_routine_name_module_MOD_kim_get_number_of_model_routine_names
libkim-api.so.2:__kim_model_routine_name_module_MOD_kim_model_routine_name_equal
libkim-api.so.2:__kim_model_routine_name_module_MOD_kim_model_routine_name_from_string
libkim-api.so.2:__kim_model_routine_name_module_MOD_kim_model_routine_name_known
libkim-api.so.2:__kim_model_routine_name_module_MOD_kim_model_routine_name_not_equal
libkim-api.so.2:__kim_model_routine_name_module_MOD_kim_model_routine_name_to_string
libkim-api.so.2:__kim_model_write_parameterized_model_module_MOD___copy_5B4AC7E
libkim-api.so.2:__kim_model_write_parameterized_model_module_MOD_kim_model_write_parameterized_model_get_model_buffer_pointer
libkim-api.so.2:__kim_model_write_parameterized_model_module_MOD_kim_model_write_parameterized_model_get_model_name
libkim-api.so.2:__kim_model_write_parameterized_model_module_MOD_kim_model_write_parameterized_model_get_path
libkim-api.so.2:__kim_model_write_parameterized_model_module_MOD_kim_model_write_parameterized_model_handle_equal
libkim-api.so.2:__kim_model_write_parameterized_model_module_MOD_kim_model_write_parameterized_model_handle_not_equal
libkim-api.so.2:__kim_model_write_parameterized_model_module_MOD_kim_model_write_parameterized_model_log_entry
libkim-api.so.2:__kim_model_write_parameterized_model_module_MOD_kim_model_write_parameterized_model_set_parameter_file_name
libkim-api.so.2:__kim_model_write_parameterized_model_module_MOD_kim_model_write_parameterized_model_to_string
libkim-api.so.2:__kim_numbering_module_MOD___copy_kim_numbering_module_Kim_numbering_type
libkim-api.so.2:__kim_numbering_module_MOD_kim_get_number_of_numberings
libkim-api.so.2:__kim_numbering_module_MOD_kim_get_numbering
libkim-api.so.2:__kim_numbering_module_MOD_kim_numbering_equal
libkim-api.so.2:__kim_numbering_module_MOD_kim_numbering_from_string
libkim-api.so.2:__kim_numbering_module_MOD_kim_numbering_known
libkim-api.so.2:__kim_numbering_module_MOD_kim_numbering_not_equal
libkim-api.so.2:__kim_numbering_module_MOD_kim_numbering_to_string
libkim-api.so.2:__kim_sem_ver_module_MOD_kim_get_sem_ver
libkim-api.so.2:__kim_sem_ver_module_MOD_kim_is_less_than
libkim-api.so.2:__kim_sem_ver_module_MOD_kim_parse_sem_ver
libkim-api.so.2:__kim_simulator_model_module_MOD___copy_31BF23E
libkim-api.so.2:__kim_simulator_model_module_MOD_kim_simulator_model_add_template_map
libkim-api.so.2:__kim_simulator_model_module_MOD_kim_simulator_model_close_template_map
libkim-api.so.2:__kim_simulator_model_module_MOD_kim_simulator_model_create
libkim-api.so.2:__kim_simulator_model_module_MOD_kim_simulator_model_destroy
libkim-api.so.2:__kim_simulator_model_module_MOD_kim_simulator_model_get_number_of_parameter_files
libkim-api.so.2:__kim_simulator_model_module_MOD_kim_simulator_model_get_number_of_simulator_fields
libkim-api.so.2:__kim_simulator_model_module_MOD_kim_simulator_model_get_number_of_supported_species
libkim-api.so.2:__kim_simulator_model_module_MOD_kim_simulator_model_get_parameter_file_directory_name
libkim-api.so.2:__kim_simulator_model_module_MOD_kim_simulator_model_get_parameter_file_name
libkim-api.so.2:__kim_simulator_model_module_MOD_kim_simulator_model_get_simulator_buffer_pointer
libkim-api.so.2:__kim_simulator_model_module_MOD_kim_simulator_model_get_simulator_field_line
libkim-api.so.2:__kim_simulator_model_module_MOD_kim_simulator_model_get_simulator_field_metadata
libkim-api.so.2:__kim_simulator_model_module_MOD_kim_simulator_model_get_simulator_name_and_version
libkim-api.so.2:__kim_simulator_model_module_MOD_kim_simulator_model_get_specification_file_name
libkim-api.so.2:__kim_simulator_model_module_MOD_kim_simulator_model_get_supported_species
libkim-api.so.2:__kim_simulator_model_module_MOD_kim_simulator_model_handle_equal
libkim-api.so.2:__kim_simulator_model_module_MOD_kim_simulator_model_handle_not_equal
libkim-api.so.2:__kim_simulator_model_module_MOD_kim_simulator_model_open_and_initialize_template_map
libkim-api.so.2:__kim_simulator_model_module_MOD_kim_simulator_model_pop_log_verbosity
libkim-api.so.2:__kim_simulator_model_module_MOD_kim_simulator_model_push_log_verbosity
libkim-api.so.2:__kim_simulator_model_module_MOD_kim_simulator_model_set_log_id
libkim-api.so.2:__kim_simulator_model_module_MOD_kim_simulator_model_set_simulator_buffer_pointer
libkim-api.so.2:__kim_simulator_model_module_MOD_kim_simulator_model_template_map_is_open
libkim-api.so.2:__kim_simulator_model_module_MOD_kim_simulator_model_to_string
libkim-api.so.2:__kim_species_name_module_MOD___copy_kim_species_name_module_Kim_species_name_type
libkim-api.so.2:__kim_species_name_module_MOD_kim_get_number_of_species_names
libkim-api.so.2:__kim_species_name_module_MOD_kim_get_species_name
libkim-api.so.2:__kim_species_name_module_MOD_kim_species_name_equal
libkim-api.so.2:__kim_species_name_module_MOD_kim_species_name_from_string
libkim-api.so.2:__kim_species_name_module_MOD_kim_species_name_known
libkim-api.so.2:__kim_species_name_module_MOD_kim_species_name_not_equal
libkim-api.so.2:__kim_species_name_module_MOD_kim_species_name_to_string
libkim-api.so.2:__kim_support_status_module_MOD___copy_37B7FE1
libkim-api.so.2:__kim_support_status_module_MOD_kim_get_number_of_support_statuses
libkim-api.so.2:__kim_support_status_module_MOD_kim_get_support_status
libkim-api.so.2:__kim_support_status_module_MOD_kim_support_status_equal
libkim-api.so.2:__kim_support_status_module_MOD_kim_support_status_from_string
libkim-api.so.2:__kim_support_status_module_MOD_kim_support_status_known
libkim-api.so.2:__kim_support_status_module_MOD_kim_support_status_not_equal
libkim-api.so.2:__kim_support_status_module_MOD_kim_support_status_to_string
libkim-api.so.2:__kim_supported_extensions_module_MOD___copy_58D82DB
libkim-api.so.2:__kim_temperature_unit_module_MOD___copy_548DD47
libkim-api.so.2:__kim_temperature_unit_module_MOD_kim_get_number_of_temperature_units
libkim-api.so.2:__kim_temperature_unit_module_MOD_kim_get_temperature_unit
libkim-api.so.2:__kim_temperature_unit_module_MOD_kim_temperature_unit_equal
libkim-api.so.2:__kim_temperature_unit_module_MOD_kim_temperature_unit_from_string
libkim-api.so.2:__kim_temperature_unit_module_MOD_kim_temperature_unit_known
libkim-api.so.2:__kim_temperature_unit_module_MOD_kim_temperature_unit_not_equal
libkim-api.so.2:__kim_temperature_unit_module_MOD_kim_temperature_unit_to_string
libkim-api.so.2:__kim_time_unit_module_MOD___copy_kim_time_unit_module_Kim_time_unit_type
libkim-api.so.2:__kim_time_unit_module_MOD_kim_get_number_of_time_units
libkim-api.so.2:__kim_time_unit_module_MOD_kim_get_time_unit
libkim-api.so.2:__kim_time_unit_module_MOD_kim_time_unit_equal
libkim-api.so.2:__kim_time_unit_module_MOD_kim_time_unit_from_string
libkim-api.so.2:__kim_time_unit_module_MOD_kim_time_unit_known
libkim-api.so.2:__kim_time_unit_module_MOD_kim_time_unit_not_equal
libkim-api.so.2:__kim_time_unit_module_MOD_kim_time_unit_to_string
